; generated by ARM C/C++ Compiler, 4.1 [Build 644]
; commandline ArmCC [--list --debug -c --asm --interleave -oglcd_spi_lpc1700.o --asm_dir=.\ --list_dir=.\ --depend=glcd_spi_lpc1700.d --cpu=Cortex-M3 --apcs=interwork -O0 -IC:\Software\Keil\ARM\CMSIS\Include -IC:\Software\Keil\ARM\INC\NXP\LPC17xx --omf_browse=glcd_spi_lpc1700.crf src\GLCD_SPI_LPC1700.c]
                          THUMB

                          AREA ||.text||, CODE, READONLY, ALIGN=2

                  delay PROC
;;;83     
;;;84     static void delay (int cnt) {
000000  ea4f4180          LSL      r1,r0,#18
;;;85     
;;;86       cnt <<= DELAY_2N;
000004  4608              MOV      r0,r1
;;;87       while (cnt--);
000006  bf00              NOP      
                  |L1.8|
000008  0001              MOVS     r1,r0
00000a  f1a00201          SUB      r2,r0,#1
00000e  4610              MOV      r0,r2
000010  d1fa              BNE      |L1.8|
;;;88     }
000012  4770              BX       lr
;;;89     
                          ENDP

                  wr_cmd PROC
;;;110    
;;;111    static __inline void wr_cmd (unsigned char cmd) {
000014  b510              PUSH     {r4,lr}
000016  4604              MOV      r4,r0
;;;112    
;;;113      LCD_CS(0)
000018  f04f0040          MOV      r0,#0x40
00001c  49ff              LDR      r1,|L1.1052|
00001e  61c8              STR      r0,[r1,#0x1c]
;;;114      spi_send(SPI_START | SPI_WR | SPI_INDEX);   /* Write : RS = 0, RW = 0       */
000020  f04f0070          MOV      r0,#0x70
000024  f7fffffe          BL       spi_send
;;;115      spi_send(0);
000028  2000              MOVS     r0,#0
00002a  f7fffffe          BL       spi_send
;;;116      spi_send(cmd);
00002e  4620              MOV      r0,r4
000030  f7fffffe          BL       spi_send
;;;117      LCD_CS(1)
000034  f04f0040          MOV      r0,#0x40
000038  49f8              LDR      r1,|L1.1052|
00003a  6188              STR      r0,[r1,#0x18]
;;;118    }
00003c  bd10              POP      {r4,pc}
;;;119    
                          ENDP

                  wr_dat PROC
;;;126    
;;;127    static __inline void wr_dat (unsigned short dat) {
00003e  b510              PUSH     {r4,lr}
000040  4604              MOV      r4,r0
;;;128    
;;;129      LCD_CS(0)
000042  f04f0040          MOV      r0,#0x40
000046  49f5              LDR      r1,|L1.1052|
000048  61c8              STR      r0,[r1,#0x1c]
;;;130      spi_send(SPI_START | SPI_WR | SPI_DATA);    /* Write : RS = 1, RW = 0       */
00004a  f04f0072          MOV      r0,#0x72
00004e  f7fffffe          BL       spi_send
;;;131      spi_send((dat >>   8));                     /* Write D8..D15                */
000052  1221              ASRS     r1,r4,#8
000054  4608              MOV      r0,r1
000056  f7fffffe          BL       spi_send
;;;132      spi_send((dat & 0xFF));                     /* Write D0..D7                 */
00005a  b2e1              UXTB     r1,r4
00005c  4608              MOV      r0,r1
00005e  f7fffffe          BL       spi_send
;;;133      LCD_CS(1)
000062  f04f0040          MOV      r0,#0x40
000066  49ed              LDR      r1,|L1.1052|
000068  6188              STR      r0,[r1,#0x18]
;;;134    }
00006a  bd10              POP      {r4,pc}
;;;135    
                          ENDP

                  rd_reg PROC
;;;213    
;;;214    static unsigned short rd_reg (unsigned char reg) {
00006c  b570              PUSH     {r4-r6,lr}
00006e  4605              MOV      r5,r0
;;;215    
;;;216      wr_cmd(reg);
000070  4628              MOV      r0,r5
000072  f7fffffe          BL       wr_cmd
;;;217      return(rd_dat());
000076  bf00              NOP      
000078  f04f0000          MOV      r0,#0
00007c  4604              MOV      r4,r0
00007e  f04f0040          MOV      r0,#0x40
000082  49e6              LDR      r1,|L1.1052|
000084  61c8              STR      r0,[r1,#0x1c]
000086  f04f0073          MOV      r0,#0x73
00008a  f7fffffe          BL       spi_send
00008e  2000              MOVS     r0,#0
000090  f7fffffe          BL       spi_send
000094  2000              MOVS     r0,#0
000096  f7fffffe          BL       spi_send
00009a  4604              MOV      r4,r0
00009c  ea4f2004          LSL      r0,r4,#8
0000a0  4604              MOV      r4,r0
0000a2  f04f0000          MOV      r0,#0
0000a6  f7fffffe          BL       spi_send
0000aa  ea400004          ORR      r0,r0,r4
0000ae  4604              MOV      r4,r0
0000b0  f04f0040          MOV      r0,#0x40
0000b4  49d9              LDR      r1,|L1.1052|
0000b6  6188              STR      r0,[r1,#0x18]
0000b8  4620              MOV      r0,r4
;;;218    }
0000ba  bd70              POP      {r4-r6,pc}
;;;219    
                          ENDP

                  GLCD_Init PROC
;;;228    
;;;229    void GLCD_Init (void) { 
0000bc  b510              PUSH     {r4,lr}
;;;230      static unsigned short driverCode;
;;;231    
;;;232      /* Enable clock for SSP1, clock = CCLK / 2                                  */
;;;233      LPC_SC->PCONP       |= 0x00000400;
0000be  48d8              LDR      r0,|L1.1056|
0000c0  6800              LDR      r0,[r0,#0]
0000c2  f4406080          ORR      r0,r0,#0x400
0000c6  49d7              LDR      r1,|L1.1060|
0000c8  f8c100c4          STR      r0,[r1,#0xc4]
;;;234      LPC_SC->PCLKSEL0    |= 0x00200000;
0000cc  4608              MOV      r0,r1
0000ce  f8d001a8          LDR      r0,[r0,#0x1a8]
0000d2  f4401000          ORR      r0,r0,#0x200000
0000d6  f8c101a8          STR      r0,[r1,#0x1a8]
;;;235    
;;;236      /* Configure the LCD Control pins                                           */
;;;237      LPC_PINCON->PINSEL9 &= 0xF0FFFFFF;
0000da  48d3              LDR      r0,|L1.1064|
0000dc  6a40              LDR      r0,[r0,#0x24]
0000de  f0206070          BIC      r0,r0,#0xf000000
0000e2  49d1              LDR      r1,|L1.1064|
0000e4  6248              STR      r0,[r1,#0x24]
;;;238      LPC_GPIO4->FIODIR   |= 0x30000000;
0000e6  48cd              LDR      r0,|L1.1052|
0000e8  f8d00080          LDR      r0,[r0,#0x80]
0000ec  f0405040          ORR      r0,r0,#0x30000000
0000f0  49ce              LDR      r1,|L1.1068|
0000f2  6008              STR      r0,[r1,#0]
;;;239      LPC_GPIO4->FIOSET    = 0x20000000;
0000f4  f04f5000          MOV      r0,#0x20000000
0000f8  49c8              LDR      r1,|L1.1052|
0000fa  f8c10098          STR      r0,[r1,#0x98]
;;;240    
;;;241      /* SSEL1 is GPIO output set to high                                         */
;;;242      LPC_GPIO0->FIODIR   |= 0x00000040;
0000fe  4608              MOV      r0,r1
000100  6800              LDR      r0,[r0,#0]
000102  f0400040          ORR      r0,r0,#0x40
000106  6008              STR      r0,[r1,#0]
;;;243      LPC_GPIO0->FIOSET    = 0x00000040;
000108  f04f0040          MOV      r0,#0x40
00010c  6188              STR      r0,[r1,#0x18]
;;;244      LPC_PINCON->PINSEL0 &= 0xFFF03FFF;
00010e  48c6              LDR      r0,|L1.1064|
000110  6800              LDR      r0,[r0,#0]
000112  f420207c          BIC      r0,r0,#0xfc000
000116  49c4              LDR      r1,|L1.1064|
000118  6008              STR      r0,[r1,#0]
;;;245      LPC_PINCON->PINSEL0 |= 0x000A8000;
00011a  4608              MOV      r0,r1
00011c  6800              LDR      r0,[r0,#0]
00011e  f4402028          ORR      r0,r0,#0xa8000
000122  6008              STR      r0,[r1,#0]
;;;246    
;;;247      /* Enable SPI in Master Mode, CPOL=1, CPHA=1                                */
;;;248      /* Max. 12.5 MBit used for Data Transfer @ 100MHz                           */
;;;249      LPC_SSP1->CR0        = 0x01C7;
000124  f24010c7          MOV      r0,#0x1c7
000128  49c1              LDR      r1,|L1.1072|
00012a  6008              STR      r0,[r1,#0]
;;;250      LPC_SSP1->CPSR       = 0x02;
00012c  f04f0002          MOV      r0,#2
000130  6108              STR      r0,[r1,#0x10]
;;;251      LPC_SSP1->CR1        = 0x02;
000132  6048              STR      r0,[r1,#4]
;;;252    
;;;253      delay(5);                             /* Delay 50 ms                        */
000134  f04f0005          MOV      r0,#5
000138  f7fffffe          BL       delay
;;;254      driverCode = rd_reg(0x00);
00013c  2000              MOVS     r0,#0
00013e  f7fffffe          BL       rd_reg
000142  49bc              LDR      r1,|L1.1076|
000144  8008              STRH     r0,[r1,#0]
;;;255    
;;;256      /* Start Initial Sequence --------------------------------------------------*/
;;;257      wr_reg(0x01, 0x0100);                 /* Set SS bit                         */
000146  f44f7180          MOV      r1,#0x100
00014a  2001              MOVS     r0,#1
00014c  f7fffffe          BL       wr_reg
;;;258      wr_reg(0x02, 0x0700);                 /* Set 1 line inversion               */
000150  f44f61e0          MOV      r1,#0x700
000154  2002              MOVS     r0,#2
000156  f7fffffe          BL       wr_reg
;;;259      wr_reg(0x04, 0x0000);                 /* Resize register                    */
00015a  2100              MOVS     r1,#0
00015c  2004              MOVS     r0,#4
00015e  f7fffffe          BL       wr_reg
;;;260      wr_reg(0x08, 0x0207);                 /* 2 lines front, 7 back porch        */
000162  f2402107          MOV      r1,#0x207
000166  2008              MOVS     r0,#8
000168  f7fffffe          BL       wr_reg
;;;261      wr_reg(0x09, 0x0000);                 /* Set non-disp area refresh cyc ISC  */
00016c  2100              MOVS     r1,#0
00016e  2009              MOVS     r0,#9
000170  f7fffffe          BL       wr_reg
;;;262      wr_reg(0x0A, 0x0000);                 /* FMARK function                     */
000174  2100              MOVS     r1,#0
000176  200a              MOVS     r0,#0xa
000178  f7fffffe          BL       wr_reg
;;;263      wr_reg(0x0C, 0x0000);                 /* RGB interface setting              */
00017c  2100              MOVS     r1,#0
00017e  200c              MOVS     r0,#0xc
000180  f7fffffe          BL       wr_reg
;;;264      wr_reg(0x0D, 0x0000);                 /* Frame marker Position              */
000184  2100              MOVS     r1,#0
000186  200d              MOVS     r0,#0xd
000188  f7fffffe          BL       wr_reg
;;;265      wr_reg(0x0F, 0x0000);                 /* RGB interface polarity             */
00018c  2100              MOVS     r1,#0
00018e  200f              MOVS     r0,#0xf
000190  f7fffffe          BL       wr_reg
;;;266    
;;;267      /* Power On sequence -------------------------------------------------------*/
;;;268      wr_reg(0x10, 0x0000);                 /* Reset Power Control 1              */
000194  2100              MOVS     r1,#0
000196  2010              MOVS     r0,#0x10
000198  f7fffffe          BL       wr_reg
;;;269      wr_reg(0x11, 0x0000);                 /* Reset Power Control 2              */
00019c  2100              MOVS     r1,#0
00019e  2011              MOVS     r0,#0x11
0001a0  f7fffffe          BL       wr_reg
;;;270      wr_reg(0x12, 0x0000);                 /* Reset Power Control 3              */
0001a4  2100              MOVS     r1,#0
0001a6  2012              MOVS     r0,#0x12
0001a8  f7fffffe          BL       wr_reg
;;;271      wr_reg(0x13, 0x0000);                 /* Reset Power Control 4              */
0001ac  2100              MOVS     r1,#0
0001ae  2013              MOVS     r0,#0x13
0001b0  f7fffffe          BL       wr_reg
;;;272      delay(20);                            /* Discharge cap power voltage (200ms)*/
0001b4  2014              MOVS     r0,#0x14
0001b6  f7fffffe          BL       delay
;;;273      wr_reg(0x10, 0x12B0);                 /* SAP, BT[3:0], AP, DSTB, SLP, STB   */
0001ba  f24121b0          MOV      r1,#0x12b0
0001be  2010              MOVS     r0,#0x10
0001c0  f7fffffe          BL       wr_reg
;;;274      wr_reg(0x11, 0x0007);                 /* DC1[2:0], DC0[2:0], VC[2:0]        */
0001c4  2107              MOVS     r1,#7
0001c6  2011              MOVS     r0,#0x11
0001c8  f7fffffe          BL       wr_reg
;;;275      delay(5);                             /* Delay 50 ms                        */
0001cc  2005              MOVS     r0,#5
0001ce  f7fffffe          BL       delay
;;;276      wr_reg(0x12, 0x01BD);                 /* VREG1OUT voltage                   */
0001d2  f24011bd          MOV      r1,#0x1bd
0001d6  2012              MOVS     r0,#0x12
0001d8  f7fffffe          BL       wr_reg
;;;277      delay(5);                             /* Delay 50 ms                        */
0001dc  2005              MOVS     r0,#5
0001de  f7fffffe          BL       delay
;;;278      wr_reg(0x13, 0x1400);                 /* VDV[4:0] for VCOM amplitude        */
0001e2  f44f51a0          MOV      r1,#0x1400
0001e6  2013              MOVS     r0,#0x13
0001e8  f7fffffe          BL       wr_reg
;;;279      wr_reg(0x29, 0x000E);                 /* VCM[4:0] for VCOMH                 */
0001ec  210e              MOVS     r1,#0xe
0001ee  2029              MOVS     r0,#0x29
0001f0  f7fffffe          BL       wr_reg
;;;280      delay(5);                             /* Delay 50 ms                        */
0001f4  2005              MOVS     r0,#5
0001f6  f7fffffe          BL       delay
;;;281      wr_reg(0x20, 0x0000);                 /* GRAM horizontal Address            */
0001fa  2100              MOVS     r1,#0
0001fc  2020              MOVS     r0,#0x20
0001fe  f7fffffe          BL       wr_reg
;;;282      wr_reg(0x21, 0x0000);                 /* GRAM Vertical Address              */
000202  2100              MOVS     r1,#0
000204  2021              MOVS     r0,#0x21
000206  f7fffffe          BL       wr_reg
;;;283    
;;;284      /* Adjust the Gamma Curve --------------------------------------------------*/
;;;285      if (driverCode == 0x5408) {           /* LCD with SPFD5408 LCD Controller   */
00020a  488a              LDR      r0,|L1.1076|
00020c  8800              LDRH     r0,[r0,#0]  ; driverCode
00020e  f5a041a8          SUB      r1,r0,#0x5400
000212  3908              SUBS     r1,r1,#8
000214  d150              BNE      |L1.696|
;;;286        wr_reg(0x30, 0x0B0D);
000216  f640310d          MOV      r1,#0xb0d
00021a  2030              MOVS     r0,#0x30
00021c  f7fffffe          BL       wr_reg
;;;287        wr_reg(0x31, 0x1923);
000220  f6411123          MOV      r1,#0x1923
000224  2031              MOVS     r0,#0x31
000226  f7fffffe          BL       wr_reg
;;;288        wr_reg(0x32, 0x1C26);
00022a  f6414126          MOV      r1,#0x1c26
00022e  2032              MOVS     r0,#0x32
000230  f7fffffe          BL       wr_reg
;;;289        wr_reg(0x33, 0x261C);
000234  f242611c          MOV      r1,#0x261c
000238  2033              MOVS     r0,#0x33
00023a  f7fffffe          BL       wr_reg
;;;290        wr_reg(0x34, 0x2419);
00023e  f2424119          MOV      r1,#0x2419
000242  2034              MOVS     r0,#0x34
000244  f7fffffe          BL       wr_reg
;;;291        wr_reg(0x35, 0x0D0B);
000248  f640510b          MOV      r1,#0xd0b
00024c  2035              MOVS     r0,#0x35
00024e  f7fffffe          BL       wr_reg
;;;292        wr_reg(0x36, 0x1006);
000252  f2410106          MOV      r1,#0x1006
000256  2036              MOVS     r0,#0x36
000258  f7fffffe          BL       wr_reg
;;;293        wr_reg(0x37, 0x0610);
00025c  f44f61c2          MOV      r1,#0x610
000260  2037              MOVS     r0,#0x37
000262  f7fffffe          BL       wr_reg
;;;294        wr_reg(0x38, 0x0706);
000266  f2407106          MOV      r1,#0x706
00026a  2038              MOVS     r0,#0x38
00026c  f7fffffe          BL       wr_reg
;;;295        wr_reg(0x39, 0x0304);
000270  f44f7141          MOV      r1,#0x304
000274  2039              MOVS     r0,#0x39
000276  f7fffffe          BL       wr_reg
;;;296        wr_reg(0x3A, 0x0E05);
00027a  f6406105          MOV      r1,#0xe05
00027e  203a              MOVS     r0,#0x3a
000280  f7fffffe          BL       wr_reg
;;;297        wr_reg(0x3B, 0x0E01);
000284  f6406101          MOV      r1,#0xe01
000288  203b              MOVS     r0,#0x3b
00028a  f7fffffe          BL       wr_reg
;;;298        wr_reg(0x3C, 0x010E);
00028e  f44f7187          MOV      r1,#0x10e
000292  203c              MOVS     r0,#0x3c
000294  f7fffffe          BL       wr_reg
;;;299        wr_reg(0x3D, 0x050E);
000298  f240510e          MOV      r1,#0x50e
00029c  203d              MOVS     r0,#0x3d
00029e  f7fffffe          BL       wr_reg
;;;300        wr_reg(0x3E, 0x0403);
0002a2  f2404103          MOV      r1,#0x403
0002a6  203e              MOVS     r0,#0x3e
0002a8  f7fffffe          BL       wr_reg
;;;301        wr_reg(0x3F, 0x0607);
0002ac  f2406107          MOV      r1,#0x607
0002b0  203f              MOVS     r0,#0x3f
0002b2  f7fffffe          BL       wr_reg
0002b6  e02e              B        |L1.790|
                  |L1.696|
;;;302      }
;;;303      else {                                /* LCD with other LCD Controller      */
;;;304        wr_reg(0x30, 0x0006);
0002b8  2106              MOVS     r1,#6
0002ba  2030              MOVS     r0,#0x30
0002bc  f7fffffe          BL       wr_reg
;;;305        wr_reg(0x31, 0x0101);
0002c0  f2401101          MOV      r1,#0x101
0002c4  2031              MOVS     r0,#0x31
0002c6  f7fffffe          BL       wr_reg
;;;306        wr_reg(0x32, 0x0003);
0002ca  2103              MOVS     r1,#3
0002cc  2032              MOVS     r0,#0x32
0002ce  f7fffffe          BL       wr_reg
;;;307        wr_reg(0x35, 0x0106);
0002d2  f44f7183          MOV      r1,#0x106
0002d6  2035              MOVS     r0,#0x35
0002d8  f7fffffe          BL       wr_reg
;;;308        wr_reg(0x36, 0x0B02);
0002dc  f6403102          MOV      r1,#0xb02
0002e0  2036              MOVS     r0,#0x36
0002e2  f7fffffe          BL       wr_reg
;;;309        wr_reg(0x37, 0x0302);
0002e6  f2403102          MOV      r1,#0x302
0002ea  2037              MOVS     r0,#0x37
0002ec  f7fffffe          BL       wr_reg
;;;310        wr_reg(0x38, 0x0707);
0002f0  f2407107          MOV      r1,#0x707
0002f4  2038              MOVS     r0,#0x38
0002f6  f7fffffe          BL       wr_reg
;;;311        wr_reg(0x39, 0x0007);
0002fa  2107              MOVS     r1,#7
0002fc  2039              MOVS     r0,#0x39
0002fe  f7fffffe          BL       wr_reg
;;;312        wr_reg(0x3C, 0x0600);
000302  f44f61c0          MOV      r1,#0x600
000306  203c              MOVS     r0,#0x3c
000308  f7fffffe          BL       wr_reg
;;;313        wr_reg(0x3D, 0x020B);
00030c  f240210b          MOV      r1,#0x20b
000310  203d              MOVS     r0,#0x3d
000312  f7fffffe          BL       wr_reg
                  |L1.790|
;;;314      }
;;;315    
;;;316      /* Set GRAM area -----------------------------------------------------------*/
;;;317      wr_reg(0x50, 0x0000);                 /* Horizontal GRAM Start Address      */
000316  2100              MOVS     r1,#0
000318  2050              MOVS     r0,#0x50
00031a  f7fffffe          BL       wr_reg
;;;318      wr_reg(0x51, (HEIGHT-1));             /* Horizontal GRAM End   Address      */
00031e  21ef              MOVS     r1,#0xef
000320  2051              MOVS     r0,#0x51
000322  f7fffffe          BL       wr_reg
;;;319      wr_reg(0x52, 0x0000);                 /* Vertical   GRAM Start Address      */
000326  2100              MOVS     r1,#0
000328  2052              MOVS     r0,#0x52
00032a  f7fffffe          BL       wr_reg
;;;320      wr_reg(0x53, (WIDTH-1));              /* Vertical   GRAM End   Address      */
00032e  f240113f          MOV      r1,#0x13f
000332  2053              MOVS     r0,#0x53
000334  f7fffffe          BL       wr_reg
;;;321      if (driverCode == 0x5408)             /* LCD with SPFD5408 LCD Controller   */
000338  483e              LDR      r0,|L1.1076|
00033a  8800              LDRH     r0,[r0,#0]  ; driverCode
00033c  f5a041a8          SUB      r1,r0,#0x5400
000340  3908              SUBS     r1,r1,#8
000342  d105              BNE      |L1.848|
;;;322        wr_reg(0x60, 0xA700);               /* Gate Scan Line                     */
000344  f44f4127          MOV      r1,#0xa700
000348  2060              MOVS     r0,#0x60
00034a  f7fffffe          BL       wr_reg
00034e  e004              B        |L1.858|
                  |L1.848|
;;;323      else                                  /* LCD with other LCD Controller      */
;;;324        wr_reg(0x60, 0x2700);               /* Gate Scan Line                     */
000350  f44f511c          MOV      r1,#0x2700
000354  2060              MOVS     r0,#0x60
000356  f7fffffe          BL       wr_reg
                  |L1.858|
;;;325      wr_reg(0x61, 0x0001);                 /* NDL,VLE, REV                       */
00035a  2101              MOVS     r1,#1
00035c  2061              MOVS     r0,#0x61
00035e  f7fffffe          BL       wr_reg
;;;326      wr_reg(0x6A, 0x0000);                 /* Set scrolling line                 */
000362  2100              MOVS     r1,#0
000364  206a              MOVS     r0,#0x6a
000366  f7fffffe          BL       wr_reg
;;;327    
;;;328      /* Partial Display Control -------------------------------------------------*/
;;;329      wr_reg(0x80, 0x0000);
00036a  2100              MOVS     r1,#0
00036c  2080              MOVS     r0,#0x80
00036e  f7fffffe          BL       wr_reg
;;;330      wr_reg(0x81, 0x0000);
000372  2100              MOVS     r1,#0
000374  2081              MOVS     r0,#0x81
000376  f7fffffe          BL       wr_reg
;;;331      wr_reg(0x82, 0x0000);
00037a  2100              MOVS     r1,#0
00037c  2082              MOVS     r0,#0x82
00037e  f7fffffe          BL       wr_reg
;;;332      wr_reg(0x83, 0x0000);
000382  2100              MOVS     r1,#0
000384  2083              MOVS     r0,#0x83
000386  f7fffffe          BL       wr_reg
;;;333      wr_reg(0x84, 0x0000);
00038a  2100              MOVS     r1,#0
00038c  2084              MOVS     r0,#0x84
00038e  f7fffffe          BL       wr_reg
;;;334      wr_reg(0x85, 0x0000);
000392  2100              MOVS     r1,#0
000394  2085              MOVS     r0,#0x85
000396  f7fffffe          BL       wr_reg
;;;335    
;;;336      /* Panel Control -----------------------------------------------------------*/
;;;337      wr_reg(0x90, 0x0010);
00039a  2110              MOVS     r1,#0x10
00039c  2090              MOVS     r0,#0x90
00039e  f7fffffe          BL       wr_reg
;;;338      wr_reg(0x92, 0x0000);
0003a2  2100              MOVS     r1,#0
0003a4  2092              MOVS     r0,#0x92
0003a6  f7fffffe          BL       wr_reg
;;;339      wr_reg(0x93, 0x0003);
0003aa  2103              MOVS     r1,#3
0003ac  2093              MOVS     r0,#0x93
0003ae  f7fffffe          BL       wr_reg
;;;340      wr_reg(0x95, 0x0110);
0003b2  f44f7188          MOV      r1,#0x110
0003b6  2095              MOVS     r0,#0x95
0003b8  f7fffffe          BL       wr_reg
;;;341      wr_reg(0x97, 0x0000);
0003bc  2100              MOVS     r1,#0
0003be  2097              MOVS     r0,#0x97
0003c0  f7fffffe          BL       wr_reg
;;;342      wr_reg(0x98, 0x0000);
0003c4  2100              MOVS     r1,#0
0003c6  2098              MOVS     r0,#0x98
0003c8  f7fffffe          BL       wr_reg
;;;343    
;;;344      /* Set GRAM write direction
;;;345         I/D=11 (Horizontal : increment, Vertical : increment)                    */
;;;346    
;;;347    #if (HORIZONTAL == 1)
;;;348      /* AM=1   (address is updated in vertical writing direction)                */
;;;349      wr_reg(0x03, 0x1038);
0003cc  f2410138          MOV      r1,#0x1038
0003d0  2003              MOVS     r0,#3
0003d2  f7fffffe          BL       wr_reg
;;;350    #else 
;;;351      /* AM=0   (address is updated in horizontal writing direction)              */
;;;352      wr_reg(0x03, 0x1030);
;;;353    #endif
;;;354    
;;;355      wr_reg(0x07, 0x0137);                 /* 262K color and display ON          */
0003d6  f2401137          MOV      r1,#0x137
0003da  2007              MOVS     r0,#7
0003dc  f7fffffe          BL       wr_reg
;;;356      LPC_GPIO4->FIOSET = 0x10000000;
0003e0  f04f5080          MOV      r0,#0x10000000
0003e4  4914              LDR      r1,|L1.1080|
0003e6  6008              STR      r0,[r1,#0]
;;;357    }
0003e8  bd10              POP      {r4,pc}
;;;358    
                          ENDP

                  GLCD_SetWindow PROC
;;;368    
;;;369    void GLCD_SetWindow (unsigned int x, unsigned int y, unsigned int w, unsigned int h) {
0003ea  e92d41f0          PUSH     {r4-r8,lr}
0003ee  4604              MOV      r4,r0
0003f0  460d              MOV      r5,r1
0003f2  4616              MOV      r6,r2
0003f4  461f              MOV      r7,r3
;;;370    
;;;371      wr_reg(0x50, x);                      /* Horizontal GRAM Start Address      */
0003f6  b2a1              UXTH     r1,r4
0003f8  f04f0050          MOV      r0,#0x50
0003fc  f7fffffe          BL       wr_reg
;;;372      wr_reg(0x51, x+w-1);                  /* Horizontal GRAM End   Address (-1) */
000400  19a0              ADDS     r0,r4,r6
000402  1e40              SUBS     r0,r0,#1
000404  b280              UXTH     r0,r0
000406  4601              MOV      r1,r0
000408  2051              MOVS     r0,#0x51
00040a  f7fffffe          BL       wr_reg
;;;373      wr_reg(0x52, y);                      /* Vertical   GRAM Start Address      */
00040e  b2a9              UXTH     r1,r5
000410  2052              MOVS     r0,#0x52
000412  f7fffffe          BL       wr_reg
;;;374      wr_reg(0x53, y+h-1);                  /* Vertical   GRAM End   Address (-1) */
000416  19e8              ADDS     r0,r5,r7
000418  1e40              SUBS     r0,r0,#1
00041a  e00f              B        |L1.1084|
                  |L1.1052|
                          DCD      0x2009c000
                  |L1.1056|
                          DCD      0x400fc0c4
                  |L1.1060|
                          DCD      0x400fc000
                  |L1.1064|
                          DCD      0x4002c000
                  |L1.1068|
                          DCD      0x2009c080
                  |L1.1072|
                          DCD      0x40030000
                  |L1.1076|
                          DCD      driverCode
                  |L1.1080|
                          DCD      0x2009c098
                  |L1.1084|
00043c  b280              UXTH     r0,r0
00043e  4601              MOV      r1,r0
000440  2053              MOVS     r0,#0x53
000442  f7fffffe          BL       wr_reg
;;;375    
;;;376      wr_reg(0x20, x);
000446  b2a1              UXTH     r1,r4
000448  2020              MOVS     r0,#0x20
00044a  f7fffffe          BL       wr_reg
;;;377      wr_reg(0x21, y);
00044e  b2a9              UXTH     r1,r5
000450  2021              MOVS     r0,#0x21
000452  f7fffffe          BL       wr_reg
;;;378    }
000456  e8bd81f0          POP      {r4-r8,pc}
;;;379    
                          ENDP

                  GLCD_WindowMax PROC
;;;386    
;;;387    void GLCD_WindowMax (void) {
00045a  b510              PUSH     {r4,lr}
;;;388    
;;;389    #if (HORIZONTAL == 1)
;;;390      GLCD_SetWindow (0, 0, HEIGHT, WIDTH);
00045c  f44f73a0          MOV      r3,#0x140
000460  22f0              MOVS     r2,#0xf0
000462  2100              MOVS     r1,#0
000464  4608              MOV      r0,r1
000466  f7fffffe          BL       GLCD_SetWindow
;;;391    #else
;;;392      GLCD_SetWindow (0, 0, WIDTH,  HEIGHT);
;;;393    #endif
;;;394    }
00046a  bd10              POP      {r4,pc}
;;;395    
                          ENDP

                  GLCD_PutPixel PROC
;;;403    
;;;404    void GLCD_PutPixel (unsigned int x, unsigned int y) {
00046c  b570              PUSH     {r4-r6,lr}
00046e  4604              MOV      r4,r0
000470  460d              MOV      r5,r1
;;;405    
;;;406    #if (HORIZONTAL == 1)
;;;407      wr_reg(0x20, y);
000472  b2a9              UXTH     r1,r5
000474  f04f0020          MOV      r0,#0x20
000478  f7fffffe          BL       wr_reg
;;;408      wr_reg(0x21, WIDTH-1-x);
00047c  f240103f          MOV      r0,#0x13f
000480  1b00              SUBS     r0,r0,r4
000482  b280              UXTH     r0,r0
000484  4601              MOV      r1,r0
000486  2021              MOVS     r0,#0x21
000488  f7fffffe          BL       wr_reg
;;;409    #else
;;;410      wr_reg(0x20, x);
;;;411      wr_reg(0x21, y);
;;;412    #endif
;;;413      wr_cmd(0x22);
00048c  2022              MOVS     r0,#0x22
00048e  f7fffffe          BL       wr_cmd
;;;414      wr_dat(TextColor);
000492  48f7              LDR      r0,|L1.2160|
000494  8800              LDRH     r0,[r0,#0]  ; TextColor
000496  f7fffffe          BL       wr_dat
;;;415    }
00049a  bd70              POP      {r4-r6,pc}
;;;416    
                          ENDP

                  GLCD_SetTextColor PROC
;;;423    
;;;424    void GLCD_SetTextColor (unsigned short color) {
00049c  49f4              LDR      r1,|L1.2160|
;;;425    
;;;426      TextColor = color;
00049e  8008              STRH     r0,[r1,#0]
;;;427    }
0004a0  4770              BX       lr
;;;428    
                          ENDP

                  GLCD_SetBackColor PROC
;;;435    
;;;436    void GLCD_SetBackColor (unsigned short color) {
0004a2  49f4              LDR      r1,|L1.2164|
;;;437    
;;;438      BackColor = color;
0004a4  8008              STRH     r0,[r1,#0]
;;;439    }
0004a6  4770              BX       lr
;;;440    
                          ENDP

                  GLCD_Clear PROC
;;;447    
;;;448    void GLCD_Clear (unsigned short color) {
0004a8  b570              PUSH     {r4-r6,lr}
0004aa  4605              MOV      r5,r0
;;;449      unsigned int i;
;;;450    
;;;451      GLCD_WindowMax();
0004ac  f7fffffe          BL       GLCD_WindowMax
;;;452      wr_cmd(0x22);
0004b0  2022              MOVS     r0,#0x22
0004b2  f7fffffe          BL       wr_cmd
;;;453      wr_dat_start();
0004b6  f7fffffe          BL       wr_dat_start
;;;454      for(i = 0; i < (WIDTH*HEIGHT); i++)
0004ba  f04f0000          MOV      r0,#0
0004be  4604              MOV      r4,r0
0004c0  e005              B        |L1.1230|
                  |L1.1218|
;;;455        wr_dat_only(color);
0004c2  4628              MOV      r0,r5
0004c4  f7fffffe          BL       wr_dat_only
0004c8  f1040001          ADD      r0,r4,#1              ;454
0004cc  4604              MOV      r4,r0                 ;454
                  |L1.1230|
0004ce  f5b43f96          CMP      r4,#0x12c00           ;454
0004d2  d3f6              BCC      |L1.1218|
;;;456      wr_dat_stop();
0004d4  f7fffffe          BL       wr_dat_stop
;;;457    }
0004d8  bd70              POP      {r4-r6,pc}
;;;458    
                          ENDP

                  GLCD_DrawChar_U8 PROC
;;;469    
;;;470    void GLCD_DrawChar_U8 (unsigned int x, unsigned int y, unsigned int cw, unsigned int ch, unsigned char *c) {
0004da  e92d5ff0          PUSH     {r4-r12,lr}
0004de  4605              MOV      r5,r0
0004e0  4688              MOV      r8,r1
0004e2  4614              MOV      r4,r2
0004e4  461e              MOV      r6,r3
0004e6  f8dd9028          LDR      r9,[sp,#0x28]
;;;471      int idx = 0, i, j;
0004ea  f04f0000          MOV      r0,#0
0004ee  4683              MOV      r11,r0
;;;472    
;;;473    #if (HORIZONTAL == 1)
;;;474      x = WIDTH-x-cw;
0004f0  f5c570a0          RSB      r0,r5,#0x140
0004f4  eba00004          SUB      r0,r0,r4
0004f8  4605              MOV      r5,r0
;;;475      GLCD_SetWindow(y, x, ch, cw);
0004fa  4623              MOV      r3,r4
0004fc  4632              MOV      r2,r6
0004fe  4629              MOV      r1,r5
000500  4640              MOV      r0,r8
000502  f7fffffe          BL       GLCD_SetWindow
;;;476    #else
;;;477      GLCD_SetWindow(x, y, cw, ch);
;;;478    #endif
;;;479      wr_cmd(0x22);
000506  2022              MOVS     r0,#0x22
000508  f7fffffe          BL       wr_cmd
;;;480      wr_dat_start();
00050c  f7fffffe          BL       wr_dat_start
;;;481      for (j = 0; j < ch; j++) {
000510  f04f0000          MOV      r0,#0
000514  4682              MOV      r10,r0
000516  e01e              B        |L1.1366|
                  |L1.1304|
;;;482    #if (HORIZONTAL == 1)
;;;483        for (i = cw-1; i >= 0; i--) {
000518  f1a40001          SUB      r0,r4,#1
00051c  4607              MOV      r7,r0
00051e  e012              B        |L1.1350|
                  |L1.1312|
;;;484    #else
;;;485        for (i = 0; i <= cw-1; i++) {
;;;486    #endif
;;;487          if((c[idx] & (1 << i)) == 0x00) {
000520  f819000b          LDRB     r0,[r9,r11]
000524  2101              MOVS     r1,#1
000526  fa01f107          LSL      r1,r1,r7
00052a  4208              TST      r0,r1
00052c  d104              BNE      |L1.1336|
;;;488            wr_dat_only(BackColor);
00052e  48d1              LDR      r0,|L1.2164|
000530  8800              LDRH     r0,[r0,#0]  ; BackColor
000532  f7fffffe          BL       wr_dat_only
000536  e003              B        |L1.1344|
                  |L1.1336|
;;;489          } else {
;;;490            wr_dat_only(TextColor);
000538  48cd              LDR      r0,|L1.2160|
00053a  8800              LDRH     r0,[r0,#0]  ; TextColor
00053c  f7fffffe          BL       wr_dat_only
                  |L1.1344|
000540  f1a70001          SUB      r0,r7,#1              ;483
000544  4607              MOV      r7,r0                 ;483
                  |L1.1350|
000546  2f00              CMP      r7,#0                 ;483
000548  daea              BGE      |L1.1312|
;;;491          }
;;;492        }
;;;493        c++;
00054a  f1090001          ADD      r0,r9,#1
00054e  4681              MOV      r9,r0
000550  f10a0001          ADD      r0,r10,#1             ;481
000554  4682              MOV      r10,r0                ;481
                  |L1.1366|
000556  45b2              CMP      r10,r6                ;481
000558  d3de              BCC      |L1.1304|
;;;494      }
;;;495      wr_dat_stop();
00055a  f7fffffe          BL       wr_dat_stop
;;;496    }
00055e  e8bd9ff0          POP      {r4-r12,pc}
;;;497    
                          ENDP

                  GLCD_DrawChar_U16 PROC
;;;508    
;;;509    void GLCD_DrawChar_U16 (unsigned int x, unsigned int y, unsigned int cw, unsigned int ch, unsigned short *c) {
000562  e92d5ff0          PUSH     {r4-r12,lr}
000566  4605              MOV      r5,r0
000568  4688              MOV      r8,r1
00056a  4614              MOV      r4,r2
00056c  461e              MOV      r6,r3
00056e  f8dd9028          LDR      r9,[sp,#0x28]
;;;510      int idx = 0, i, j;
000572  f04f0000          MOV      r0,#0
000576  4683              MOV      r11,r0
;;;511    
;;;512    #if (HORIZONTAL == 1)
;;;513      x = WIDTH-x-cw;
000578  f5c570a0          RSB      r0,r5,#0x140
00057c  eba00004          SUB      r0,r0,r4
000580  4605              MOV      r5,r0
;;;514      GLCD_SetWindow(y, x, ch, cw);
000582  4623              MOV      r3,r4
000584  4632              MOV      r2,r6
000586  4629              MOV      r1,r5
000588  4640              MOV      r0,r8
00058a  f7fffffe          BL       GLCD_SetWindow
;;;515    #else
;;;516      GLCD_SetWindow(x, y, cw, ch);
;;;517    #endif
;;;518      wr_cmd(0x22);
00058e  2022              MOVS     r0,#0x22
000590  f7fffffe          BL       wr_cmd
;;;519      wr_dat_start();
000594  f7fffffe          BL       wr_dat_start
;;;520      for (j = 0; j < ch; j++) {
000598  f04f0000          MOV      r0,#0
00059c  4682              MOV      r10,r0
00059e  e01e              B        |L1.1502|
                  |L1.1440|
;;;521    #if (HORIZONTAL == 1)
;;;522        for (i = cw-1; i >= 0; i--) {
0005a0  f1a40001          SUB      r0,r4,#1
0005a4  4607              MOV      r7,r0
0005a6  e012              B        |L1.1486|
                  |L1.1448|
;;;523    #else
;;;524        for (i = 0; i <= cw-1; i++) {
;;;525    #endif
;;;526          if((c[idx] & (1 << i)) == 0x00) {
0005a8  f839001b          LDRH     r0,[r9,r11,LSL #1]
0005ac  2101              MOVS     r1,#1
0005ae  fa01f107          LSL      r1,r1,r7
0005b2  4208              TST      r0,r1
0005b4  d104              BNE      |L1.1472|
;;;527            wr_dat_only(BackColor);
0005b6  48af              LDR      r0,|L1.2164|
0005b8  8800              LDRH     r0,[r0,#0]  ; BackColor
0005ba  f7fffffe          BL       wr_dat_only
0005be  e003              B        |L1.1480|
                  |L1.1472|
;;;528          } else {
;;;529            wr_dat_only(TextColor);
0005c0  48ab              LDR      r0,|L1.2160|
0005c2  8800              LDRH     r0,[r0,#0]  ; TextColor
0005c4  f7fffffe          BL       wr_dat_only
                  |L1.1480|
0005c8  f1a70001          SUB      r0,r7,#1              ;522
0005cc  4607              MOV      r7,r0                 ;522
                  |L1.1486|
0005ce  2f00              CMP      r7,#0                 ;522
0005d0  daea              BGE      |L1.1448|
;;;530          }
;;;531        }
;;;532        c++;
0005d2  f1090002          ADD      r0,r9,#2
0005d6  4681              MOV      r9,r0
0005d8  f10a0001          ADD      r0,r10,#1             ;520
0005dc  4682              MOV      r10,r0                ;520
                  |L1.1502|
0005de  45b2              CMP      r10,r6                ;520
0005e0  d3de              BCC      |L1.1440|
;;;533      }
;;;534      wr_dat_stop();
0005e2  f7fffffe          BL       wr_dat_stop
;;;535    }
0005e6  e8bd9ff0          POP      {r4-r12,pc}
;;;536    
                          ENDP

                  GLCD_DisplayChar PROC
;;;546    
;;;547    void GLCD_DisplayChar (unsigned int ln, unsigned int col, unsigned char fi, unsigned char c) {
0005ea  b5f8              PUSH     {r3-r7,lr}
0005ec  4605              MOV      r5,r0
0005ee  460e              MOV      r6,r1
0005f0  4617              MOV      r7,r2
0005f2  461c              MOV      r4,r3
;;;548    
;;;549      c -= 32;
0005f4  f1a40020          SUB      r0,r4,#0x20
0005f8  b2c0              UXTB     r0,r0
0005fa  4604              MOV      r4,r0
;;;550      switch (fi) {
0005fc  b117              CBZ      r7,|L1.1540|
0005fe  2f01              CMP      r7,#1
000600  d120              BNE      |L1.1604|
000602  e00e              B        |L1.1570|
                  |L1.1540|
;;;551        case 0:  /* Font 6 x 8 */
;;;552          GLCD_DrawChar_U8 (col *  6, ln *  8,  6,  8, (unsigned char  *)&Font_6x8_h  [c * 8]);
000604  489c              LDR      r0,|L1.2168|
000606  eb0000c4          ADD      r0,r0,r4,LSL #3
00060a  00ea              LSLS     r2,r5,#3
00060c  4611              MOV      r1,r2
00060e  eb060246          ADD      r2,r6,r6,LSL #1
000612  0052              LSLS     r2,r2,#1
000614  9000              STR      r0,[sp,#0]
000616  4610              MOV      r0,r2
000618  2308              MOVS     r3,#8
00061a  2206              MOVS     r2,#6
00061c  f7fffffe          BL       GLCD_DrawChar_U8
;;;553          break;
000620  e010              B        |L1.1604|
                  |L1.1570|
;;;554        case 1:  /* Font 16 x 24 */
;;;555          GLCD_DrawChar_U16(col * 16, ln * 24, 16, 24, (unsigned short *)&Font_16x24_h[c * 24]);
000622  eb040044          ADD      r0,r4,r4,LSL #1
000626  4995              LDR      r1,|L1.2172|
000628  eb011000          ADD      r0,r1,r0,LSL #4
00062c  eb050245          ADD      r2,r5,r5,LSL #1
000630  00d2              LSLS     r2,r2,#3
000632  4611              MOV      r1,r2
000634  0132              LSLS     r2,r6,#4
000636  9000              STR      r0,[sp,#0]
000638  4610              MOV      r0,r2
00063a  2318              MOVS     r3,#0x18
00063c  2210              MOVS     r2,#0x10
00063e  f7fffffe          BL       GLCD_DrawChar_U16
;;;556          break;
000642  bf00              NOP      
                  |L1.1604|
000644  bf00              NOP                            ;553
;;;557      }
;;;558    }
000646  bdf8              POP      {r3-r7,pc}
;;;559    
                          ENDP

                  GLCD_DisplayString PROC
;;;569    
;;;570    void GLCD_DisplayString (unsigned int ln, unsigned int col, unsigned char fi, unsigned char *s) {
000648  e92d41f0          PUSH     {r4-r8,lr}
00064c  4606              MOV      r6,r0
00064e  460d              MOV      r5,r1
000650  4617              MOV      r7,r2
000652  461c              MOV      r4,r3
;;;571    
;;;572      GLCD_WindowMax();
000654  f7fffffe          BL       GLCD_WindowMax
;;;573      while (*s) {
000658  e00b              B        |L1.1650|
                  |L1.1626|
;;;574        GLCD_DisplayChar(ln, col++, fi, *s++);
00065a  7822              LDRB     r2,[r4,#0]
00065c  1c60              ADDS     r0,r4,#1
00065e  4604              MOV      r4,r0
000660  4613              MOV      r3,r2
000662  4628              MOV      r0,r5
000664  1c6a              ADDS     r2,r5,#1
000666  4615              MOV      r5,r2
000668  4601              MOV      r1,r0
00066a  463a              MOV      r2,r7
00066c  4630              MOV      r0,r6
00066e  f7fffffe          BL       GLCD_DisplayChar
                  |L1.1650|
000672  7820              LDRB     r0,[r4,#0]            ;573
000674  2800              CMP      r0,#0                 ;573
000676  d1f0              BNE      |L1.1626|
;;;575      }
;;;576    }
000678  e8bd81f0          POP      {r4-r8,pc}
;;;577    
                          ENDP

                  GLCD_ClearLn PROC
;;;585    
;;;586    void GLCD_ClearLn (unsigned int ln, unsigned char fi) {
00067c  b570              PUSH     {r4-r6,lr}
00067e  b090              SUB      sp,sp,#0x40
000680  4606              MOV      r6,r0
000682  460d              MOV      r5,r1
;;;587      unsigned char i;
;;;588      unsigned char buf[60];
;;;589    
;;;590      GLCD_WindowMax();
000684  f7fffffe          BL       GLCD_WindowMax
;;;591      switch (fi) {
000688  b115              CBZ      r5,|L1.1680|
00068a  2d01              CMP      r5,#1
00068c  d128              BNE      |L1.1760|
00068e  e013              B        |L1.1720|
                  |L1.1680|
;;;592        case 0:  /* Font 6 x 8 */
;;;593          for (i = 0; i < (WIDTH+5)/6; i++)
000690  f04f0400          MOV      r4,#0
000694  e007              B        |L1.1702|
                  |L1.1686|
;;;594            buf[i] = ' ';
000696  f04f0020          MOV      r0,#0x20
00069a  a901              ADD      r1,sp,#4
00069c  5508              STRB     r0,[r1,r4]
00069e  f1040001          ADD      r0,r4,#1              ;593
0006a2  b2c0              UXTB     r0,r0                 ;593
0006a4  4604              MOV      r4,r0                 ;593
                  |L1.1702|
0006a6  2c36              CMP      r4,#0x36              ;593
0006a8  dbf5              BLT      |L1.1686|
;;;595          buf[i+1] = 0;
0006aa  f04f0100          MOV      r1,#0
0006ae  aa01              ADD      r2,sp,#4
0006b0  f1040001          ADD      r0,r4,#1
0006b4  5411              STRB     r1,[r2,r0]
;;;596          break;
0006b6  e013              B        |L1.1760|
                  |L1.1720|
;;;597        case 1:  /* Font 16 x 24 */
;;;598          for (i = 0; i < (WIDTH+15)/16; i++)
0006b8  f04f0400          MOV      r4,#0
0006bc  e007              B        |L1.1742|
                  |L1.1726|
;;;599            buf[i] = ' ';
0006be  f04f0020          MOV      r0,#0x20
0006c2  a901              ADD      r1,sp,#4
0006c4  5508              STRB     r0,[r1,r4]
0006c6  f1040001          ADD      r0,r4,#1              ;598
0006ca  b2c0              UXTB     r0,r0                 ;598
0006cc  4604              MOV      r4,r0                 ;598
                  |L1.1742|
0006ce  2c14              CMP      r4,#0x14              ;598
0006d0  dbf5              BLT      |L1.1726|
;;;600          buf[i+1] = 0;
0006d2  f04f0100          MOV      r1,#0
0006d6  aa01              ADD      r2,sp,#4
0006d8  f1040001          ADD      r0,r4,#1
0006dc  5411              STRB     r1,[r2,r0]
;;;601          break;
0006de  bf00              NOP      
                  |L1.1760|
0006e0  bf00              NOP                            ;596
;;;602      }
;;;603      GLCD_DisplayString (ln, 0, fi, buf);
0006e2  ab01              ADD      r3,sp,#4
0006e4  462a              MOV      r2,r5
0006e6  2100              MOVS     r1,#0
0006e8  4630              MOV      r0,r6
0006ea  f7fffffe          BL       GLCD_DisplayString
;;;604    }
0006ee  b010              ADD      sp,sp,#0x40
0006f0  bd70              POP      {r4-r6,pc}
;;;605    
                          ENDP

                  GLCD_Bargraph PROC
;;;614    
;;;615    void GLCD_Bargraph (unsigned int x, unsigned int y, unsigned int w, unsigned int h, unsigned int val) {
0006f2  e92d47f0          PUSH     {r4-r10,lr}
0006f6  4605              MOV      r5,r0
0006f8  4688              MOV      r8,r1
0006fa  4614              MOV      r4,r2
0006fc  461e              MOV      r6,r3
0006fe  f8dda020          LDR      r10,[sp,#0x20]
;;;616      int i,j;
;;;617    
;;;618      val = (val * w) >> 10;                /* Scale value                        */
000702  fb0af004          MUL      r0,r10,r4
000706  ea4f2090          LSR      r0,r0,#10
00070a  4682              MOV      r10,r0
;;;619    #if (HORIZONTAL == 1)
;;;620      x = WIDTH-x-w;
00070c  f5c570a0          RSB      r0,r5,#0x140
000710  eba00004          SUB      r0,r0,r4
000714  4605              MOV      r5,r0
;;;621      GLCD_SetWindow(y, x, h, w);
000716  4623              MOV      r3,r4
000718  4632              MOV      r2,r6
00071a  4629              MOV      r1,r5
00071c  4640              MOV      r0,r8
00071e  f7fffffe          BL       GLCD_SetWindow
;;;622    #else
;;;623      GLCD_SetWindow(x, y, w, h);
;;;624    #endif
;;;625      wr_cmd(0x22);
000722  2022              MOVS     r0,#0x22
000724  f7fffffe          BL       wr_cmd
;;;626      wr_dat_start();
000728  f7fffffe          BL       wr_dat_start
;;;627      for (i = 0; i < h; i++) {
00072c  f04f0000          MOV      r0,#0
000730  4681              MOV      r9,r0
000732  e016              B        |L1.1890|
                  |L1.1844|
;;;628    #if (HORIZONTAL == 1)
;;;629        for (j = w-1; j >= 0; j--) {
000734  f1a40001          SUB      r0,r4,#1
000738  4607              MOV      r7,r0
00073a  e00d              B        |L1.1880|
                  |L1.1852|
;;;630    #else
;;;631        for (j = 0; j <= w-1; j++) {
;;;632    #endif
;;;633          if(j >= val) {
00073c  4557              CMP      r7,r10
00073e  d304              BCC      |L1.1866|
;;;634            wr_dat_only(BackColor);
000740  484c              LDR      r0,|L1.2164|
000742  8800              LDRH     r0,[r0,#0]  ; BackColor
000744  f7fffffe          BL       wr_dat_only
000748  e003              B        |L1.1874|
                  |L1.1866|
;;;635          } else {
;;;636            wr_dat_only(TextColor);
00074a  4849              LDR      r0,|L1.2160|
00074c  8800              LDRH     r0,[r0,#0]  ; TextColor
00074e  f7fffffe          BL       wr_dat_only
                  |L1.1874|
000752  f1a70001          SUB      r0,r7,#1              ;629
000756  4607              MOV      r7,r0                 ;629
                  |L1.1880|
000758  2f00              CMP      r7,#0                 ;629
00075a  daef              BGE      |L1.1852|
00075c  f1090001          ADD      r0,r9,#1              ;627
000760  4681              MOV      r9,r0                 ;627
                  |L1.1890|
000762  45b1              CMP      r9,r6                 ;627
000764  d3e6              BCC      |L1.1844|
;;;637          }
;;;638        }
;;;639      }
;;;640      wr_dat_stop();
000766  f7fffffe          BL       wr_dat_stop
;;;641    }
00076a  e8bd87f0          POP      {r4-r10,pc}
;;;642    
                          ENDP

                  GLCD_Bitmap PROC
;;;655    
;;;656    void GLCD_Bitmap (unsigned int x, unsigned int y, unsigned int w, unsigned int h, unsigned char *bitmap) {
00076e  e92d5ff0          PUSH     {r4-r12,lr}
000772  4605              MOV      r5,r0
000774  460f              MOV      r7,r1
000776  4614              MOV      r4,r2
000778  461e              MOV      r6,r3
00077a  f8ddb028          LDR      r11,[sp,#0x28]
;;;657      unsigned int    i, j;
;;;658      unsigned short *bitmap_ptr = (unsigned short *)bitmap;
00077e  46da              MOV      r10,r11
;;;659    
;;;660    #if (HORIZONTAL == 1)
;;;661      x = WIDTH-x-w;
000780  f5c570a0          RSB      r0,r5,#0x140
000784  eba00004          SUB      r0,r0,r4
000788  4605              MOV      r5,r0
;;;662      GLCD_SetWindow(y, x, h, w);
00078a  4623              MOV      r3,r4
00078c  4632              MOV      r2,r6
00078e  4629              MOV      r1,r5
000790  4638              MOV      r0,r7
000792  f7fffffe          BL       GLCD_SetWindow
;;;663    #else
;;;664      GLCD_SetWindow(x, y, w, h);
;;;665    #endif
;;;666      wr_cmd(0x22);
000796  2022              MOVS     r0,#0x22
000798  f7fffffe          BL       wr_cmd
;;;667      wr_dat_start();
00079c  f7fffffe          BL       wr_dat_start
;;;668      for (j = 0; j < h; j++) {
0007a0  f04f0000          MOV      r0,#0
0007a4  4681              MOV      r9,r0
0007a6  e013              B        |L1.2000|
                  |L1.1960|
;;;669    #if (HORIZONTAL == 1)
;;;670        for (i = 0; i < w; i++) {
0007a8  f04f0000          MOV      r0,#0
0007ac  4680              MOV      r8,r0
0007ae  e00a              B        |L1.1990|
                  |L1.1968|
;;;671          wr_dat_only(*bitmap_ptr++);
0007b0  f8ba2000          LDRH     r2,[r10,#0]
0007b4  f10a0102          ADD      r1,r10,#2
0007b8  468a              MOV      r10,r1
0007ba  4610              MOV      r0,r2
0007bc  f7fffffe          BL       wr_dat_only
0007c0  f1080001          ADD      r0,r8,#1              ;670
0007c4  4680              MOV      r8,r0                 ;670
                  |L1.1990|
0007c6  45a0              CMP      r8,r4                 ;670
0007c8  d3f2              BCC      |L1.1968|
0007ca  f1090001          ADD      r0,r9,#1              ;668
0007ce  4681              MOV      r9,r0                 ;668
                  |L1.2000|
0007d0  45b1              CMP      r9,r6                 ;668
0007d2  d3e9              BCC      |L1.1960|
;;;672        }
;;;673    #else
;;;674        bitmap_ptr += w-1;
;;;675        for (i = 0; i < w; i++) {
;;;676          wr_dat_only(*bitmap_ptr--);
;;;677        }
;;;678        bitmap_ptr += w+1;
;;;679    #endif
;;;680      }
;;;681      wr_dat_stop();
0007d4  f7fffffe          BL       wr_dat_stop
;;;682    }
0007d8  e8bd9ff0          POP      {r4-r12,pc}
;;;683    
                          ENDP

                  GLCD_Bmp PROC
;;;696    
;;;697    void GLCD_Bmp (unsigned int x, unsigned int y, unsigned int w, unsigned int h, unsigned char *bmp) {
0007dc  e92d5ff0          PUSH     {r4-r12,lr}
0007e0  4606              MOV      r6,r0
0007e2  4688              MOV      r8,r1
0007e4  4614              MOV      r4,r2
0007e6  461d              MOV      r5,r3
0007e8  f8dd9028          LDR      r9,[sp,#0x28]
;;;698      unsigned int    i, j;
;;;699      unsigned short *bitmap_ptr = (unsigned short *)bmp;
0007ec  464f              MOV      r7,r9
;;;700    
;;;701    #if (HORIZONTAL == 1)
;;;702      x = WIDTH-x-w;
0007ee  f5c670a0          RSB      r0,r6,#0x140
0007f2  eba00004          SUB      r0,r0,r4
0007f6  4606              MOV      r6,r0
;;;703      GLCD_SetWindow(y, x, h, w);
0007f8  4623              MOV      r3,r4
0007fa  462a              MOV      r2,r5
0007fc  4631              MOV      r1,r6
0007fe  4640              MOV      r0,r8
000800  f7fffffe          BL       GLCD_SetWindow
;;;704    #else
;;;705      GLCD_SetWindow(x, y, w, h);
;;;706    #endif
;;;707      wr_cmd(0x22);
000804  2022              MOVS     r0,#0x22
000806  f7fffffe          BL       wr_cmd
;;;708      wr_dat_start();
00080a  f7fffffe          BL       wr_dat_start
;;;709    #if (HORIZONTAL == 1)
;;;710      bitmap_ptr += (h*w)-1;
00080e  fb05f004          MUL      r0,r5,r4
000812  f1a00001          SUB      r0,r0,#1
000816  eb070040          ADD      r0,r7,r0,LSL #1
00081a  4607              MOV      r7,r0
;;;711      for (j = 0; j < h; j++) {
00081c  f04f0000          MOV      r0,#0
000820  4683              MOV      r11,r0
000822  e011              B        |L1.2120|
                  |L1.2084|
;;;712        for (i = 0; i < w; i++) {
000824  f04f0000          MOV      r0,#0
000828  4682              MOV      r10,r0
00082a  e008              B        |L1.2110|
                  |L1.2092|
;;;713          wr_dat_only(*bitmap_ptr--);
00082c  883a              LDRH     r2,[r7,#0]
00082e  1eb9              SUBS     r1,r7,#2
000830  460f              MOV      r7,r1
000832  4610              MOV      r0,r2
000834  f7fffffe          BL       wr_dat_only
000838  f10a0001          ADD      r0,r10,#1             ;712
00083c  4682              MOV      r10,r0                ;712
                  |L1.2110|
00083e  45a2              CMP      r10,r4                ;712
000840  d3f4              BCC      |L1.2092|
000842  f10b0001          ADD      r0,r11,#1             ;711
000846  4683              MOV      r11,r0                ;711
                  |L1.2120|
000848  45ab              CMP      r11,r5                ;711
00084a  d3eb              BCC      |L1.2084|
;;;714        }
;;;715      }
;;;716    #else
;;;717      bitmap_ptr += ((h-1)*w);
;;;718      for (j = 0; j < h; j++) {
;;;719        for (i = 0; i < w; i++) {
;;;720          wr_dat_only(*bitmap_ptr++);
;;;721        }
;;;722        bitmap_ptr -= 2*w;
;;;723      }
;;;724    #endif
;;;725      wr_dat_stop();
00084c  f7fffffe          BL       wr_dat_stop
;;;726    }
000850  e8bd9ff0          POP      {r4-r12,pc}
;;;727    
                          ENDP

                  GLCD_ScrollVertical PROC
;;;734    
;;;735    void GLCD_ScrollVertical (unsigned int dy) {
000854  4770              BX       lr
;;;736    #if (HORIZONTAL == 0)
;;;737      static unsigned int y = 0;
;;;738    
;;;739      y = y + dy;
;;;740      while (y >= HEIGHT) 
;;;741        y -= HEIGHT;
;;;742    
;;;743      wr_reg(0x6A, y);
;;;744      wr_reg(0x61, 3);
;;;745    #endif
;;;746    }
;;;747    
                          ENDP

                  spi_send PROC
;;;96     
;;;97     static __inline unsigned char spi_send (unsigned char byte) {
000856  4601              MOV      r1,r0
;;;98     
;;;99       LPC_SSP1->DR = byte;
000858  4809              LDR      r0,|L1.2176|
00085a  6081              STR      r1,[r0,#8]
;;;100      while (!(LPC_SSP1->SR & RNE));        /* Wait for send to finish            */
00085c  bf00              NOP      
                  |L1.2142|
00085e  4808              LDR      r0,|L1.2176|
000860  68c0              LDR      r0,[r0,#0xc]
000862  f0100f04          TST      r0,#4
000866  d0fa              BEQ      |L1.2142|
;;;101      return (LPC_SSP1->DR);
000868  4805              LDR      r0,|L1.2176|
00086a  6880              LDR      r0,[r0,#8]
00086c  b2c0              UXTB     r0,r0
;;;102    }
00086e  4770              BX       lr
                  |L1.2160|
                          DCD      TextColor
                  |L1.2164|
                          DCD      BackColor
                  |L1.2168|
                          DCD      Font_6x8_h
                  |L1.2172|
                          DCD      Font_16x24_h
                  |L1.2176|
                          DCD      0x40030000
                          ENDP

                  wr_dat_start PROC
;;;142    
;;;143    static __inline void wr_dat_start (void) {
000884  b510              PUSH     {r4,lr}
;;;144    
;;;145      LCD_CS(0)
000886  f04f0040          MOV      r0,#0x40
00088a  4911              LDR      r1,|L1.2256|
00088c  61c8              STR      r0,[r1,#0x1c]
;;;146      spi_send(SPI_START | SPI_WR | SPI_DATA);    /* Write : RS = 1, RW = 0       */
00088e  f04f0072          MOV      r0,#0x72
000892  f7fffffe          BL       spi_send
;;;147    }
000896  bd10              POP      {r4,pc}
;;;148    
                          ENDP

                  wr_dat_stop PROC
;;;155    
;;;156    static __inline void wr_dat_stop (void) {
000898  f04f0040          MOV      r0,#0x40
;;;157    
;;;158      LCD_CS(1)
00089c  490c              LDR      r1,|L1.2256|
00089e  6188              STR      r0,[r1,#0x18]
;;;159    }
0008a0  4770              BX       lr
;;;160    
                          ENDP

                  wr_dat_only PROC
;;;167    
;;;168    static __inline void wr_dat_only (unsigned short dat) {
0008a2  b510              PUSH     {r4,lr}
0008a4  4604              MOV      r4,r0
;;;169    
;;;170      spi_send((dat >>   8));                     /* Write D8..D15                */
0008a6  ea4f2124          ASR      r1,r4,#8
0008aa  4608              MOV      r0,r1
0008ac  f7fffffe          BL       spi_send
;;;171      spi_send((dat & 0xFF));                     /* Write D0..D7                 */
0008b0  b2e1              UXTB     r1,r4
0008b2  4608              MOV      r0,r1
0008b4  f7fffffe          BL       spi_send
;;;172    }
0008b8  bd10              POP      {r4,pc}
;;;173    
                          ENDP

                  wr_reg PROC
;;;200    
;;;201    static __inline void wr_reg (unsigned char reg, unsigned short val) {
0008ba  b570              PUSH     {r4-r6,lr}
0008bc  4605              MOV      r5,r0
0008be  460c              MOV      r4,r1
;;;202    
;;;203      wr_cmd(reg);
0008c0  4628              MOV      r0,r5
0008c2  f7fffffe          BL       wr_cmd
;;;204      wr_dat(val);
0008c6  4620              MOV      r0,r4
0008c8  f7fffffe          BL       wr_dat
;;;205    }
0008cc  bd70              POP      {r4-r6,pc}
;;;206    
                          ENDP

0008ce  0000              DCW      0x0000
                  |L1.2256|
                          DCD      0x2009c000

                          AREA ||.constdata||, DATA, READONLY, ALIGN=1

                  Font_6x8_h
000000  00000000          DCB      0x00,0x00,0x00,0x00
000004  00000000          DCB      0x00,0x00,0x00,0x00
000008  04040404          DCB      0x04,0x04,0x04,0x04
00000c  04000400          DCB      0x04,0x00,0x04,0x00
000010  0a0a0a00          DCB      0x0a,0x0a,0x0a,0x00
000014  00000000          DCB      0x00,0x00,0x00,0x00
000018  0a0a1f0a          DCB      0x0a,0x0a,0x1f,0x0a
00001c  1f0a0a00          DCB      0x1f,0x0a,0x0a,0x00
000020  041e050e          DCB      0x04,0x1e,0x05,0x0e
000024  140f0400          DCB      0x14,0x0f,0x04,0x00
000028  03130804          DCB      0x03,0x13,0x08,0x04
00002c  02191800          DCB      0x02,0x19,0x18,0x00
000030  02050502          DCB      0x02,0x05,0x05,0x02
000034  15091600          DCB      0x15,0x09,0x16,0x00
000038  0c0c0402          DCB      0x0c,0x0c,0x04,0x02
00003c  00000000          DCB      0x00,0x00,0x00,0x00
000040  08040202          DCB      0x08,0x04,0x02,0x02
000044  02040800          DCB      0x02,0x04,0x08,0x00
000048  02040808          DCB      0x02,0x04,0x08,0x08
00004c  08040200          DCB      0x08,0x04,0x02,0x00
000050  0004150e          DCB      0x00,0x04,0x15,0x0e
000054  0e150400          DCB      0x0e,0x15,0x04,0x00
000058  0004041f          DCB      0x00,0x04,0x04,0x1f
00005c  04040000          DCB      0x04,0x04,0x00,0x00
000060  00000000          DCB      0x00,0x00,0x00,0x00
000064  0c0c0402          DCB      0x0c,0x0c,0x04,0x02
000068  0000001f          DCB      0x00,0x00,0x00,0x1f
00006c  00000000          DCB      0x00,0x00,0x00,0x00
000070  00000000          DCB      0x00,0x00,0x00,0x00
000074  000c0c00          DCB      0x00,0x0c,0x0c,0x00
000078  00100804          DCB      0x00,0x10,0x08,0x04
00007c  02010000          DCB      0x02,0x01,0x00,0x00
000080  0e111315          DCB      0x0e,0x11,0x13,0x15
000084  19110e00          DCB      0x19,0x11,0x0e,0x00
000088  04060404          DCB      0x04,0x06,0x04,0x04
00008c  04040e00          DCB      0x04,0x04,0x0e,0x00
000090  0e11100e          DCB      0x0e,0x11,0x10,0x0e
000094  01011f00          DCB      0x01,0x01,0x1f,0x00
000098  1f10080c          DCB      0x1f,0x10,0x08,0x0c
00009c  10110e00          DCB      0x10,0x11,0x0e,0x00
0000a0  080c0a09          DCB      0x08,0x0c,0x0a,0x09
0000a4  1f080800          DCB      0x1f,0x08,0x08,0x00
0000a8  1f010f10          DCB      0x1f,0x01,0x0f,0x10
0000ac  10110e00          DCB      0x10,0x11,0x0e,0x00
0000b0  1c02010f          DCB      0x1c,0x02,0x01,0x0f
0000b4  11110e00          DCB      0x11,0x11,0x0e,0x00
0000b8  1f101008          DCB      0x1f,0x10,0x10,0x08
0000bc  04020100          DCB      0x04,0x02,0x01,0x00
0000c0  0e11110e          DCB      0x0e,0x11,0x11,0x0e
0000c4  11110e00          DCB      0x11,0x11,0x0e,0x00
0000c8  0e11111e          DCB      0x0e,0x11,0x11,0x1e
0000cc  10080700          DCB      0x10,0x08,0x07,0x00
0000d0  00000400          DCB      0x00,0x00,0x04,0x00
0000d4  04000000          DCB      0x04,0x00,0x00,0x00
0000d8  00000400          DCB      0x00,0x00,0x04,0x00
0000dc  04040200          DCB      0x04,0x04,0x02,0x00
0000e0  10080402          DCB      0x10,0x08,0x04,0x02
0000e4  04081000          DCB      0x04,0x08,0x10,0x00
0000e8  00001f00          DCB      0x00,0x00,0x1f,0x00
0000ec  1f000000          DCB      0x1f,0x00,0x00,0x00
0000f0  02040810          DCB      0x02,0x04,0x08,0x10
0000f4  08040200          DCB      0x08,0x04,0x02,0x00
0000f8  0e11100c          DCB      0x0e,0x11,0x10,0x0c
0000fc  04000400          DCB      0x04,0x00,0x04,0x00
000100  0e11151d          DCB      0x0e,0x11,0x15,0x1d
000104  0d011e00          DCB      0x0d,0x01,0x1e,0x00
000108  040a1111          DCB      0x04,0x0a,0x11,0x11
00010c  1f111100          DCB      0x1f,0x11,0x11,0x00
000110  0f11110f          DCB      0x0f,0x11,0x11,0x0f
000114  11110f00          DCB      0x11,0x11,0x0f,0x00
000118  0e110101          DCB      0x0e,0x11,0x01,0x01
00011c  01110e00          DCB      0x01,0x11,0x0e,0x00
000120  0f111111          DCB      0x0f,0x11,0x11,0x11
000124  11110f00          DCB      0x11,0x11,0x0f,0x00
000128  1f01010f          DCB      0x1f,0x01,0x01,0x0f
00012c  01011f00          DCB      0x01,0x01,0x1f,0x00
000130  1f01010f          DCB      0x1f,0x01,0x01,0x0f
000134  01010100          DCB      0x01,0x01,0x01,0x00
000138  1e110101          DCB      0x1e,0x11,0x01,0x01
00013c  19111e00          DCB      0x19,0x11,0x1e,0x00
000140  1111111f          DCB      0x11,0x11,0x11,0x1f
000144  11111100          DCB      0x11,0x11,0x11,0x00
000148  0e040404          DCB      0x0e,0x04,0x04,0x04
00014c  04040e00          DCB      0x04,0x04,0x0e,0x00
000150  1c080808          DCB      0x1c,0x08,0x08,0x08
000154  08090600          DCB      0x08,0x09,0x06,0x00
000158  11090503          DCB      0x11,0x09,0x05,0x03
00015c  05091100          DCB      0x05,0x09,0x11,0x00
000160  01010101          DCB      0x01,0x01,0x01,0x01
000164  01011f00          DCB      0x01,0x01,0x1f,0x00
000168  111b1515          DCB      0x11,0x1b,0x15,0x15
00016c  15111100          DCB      0x15,0x11,0x11,0x00
000170  11111315          DCB      0x11,0x11,0x13,0x15
000174  19111100          DCB      0x19,0x11,0x11,0x00
000178  0e111111          DCB      0x0e,0x11,0x11,0x11
00017c  11110e00          DCB      0x11,0x11,0x0e,0x00
000180  0f11110f          DCB      0x0f,0x11,0x11,0x0f
000184  01010100          DCB      0x01,0x01,0x01,0x00
000188  0e111111          DCB      0x0e,0x11,0x11,0x11
00018c  15091600          DCB      0x15,0x09,0x16,0x00
000190  0f11110f          DCB      0x0f,0x11,0x11,0x0f
000194  05091100          DCB      0x05,0x09,0x11,0x00
000198  0e11010e          DCB      0x0e,0x11,0x01,0x0e
00019c  10110e00          DCB      0x10,0x11,0x0e,0x00
0001a0  1f150404          DCB      0x1f,0x15,0x04,0x04
0001a4  04040400          DCB      0x04,0x04,0x04,0x00
0001a8  11111111          DCB      0x11,0x11,0x11,0x11
0001ac  11110e00          DCB      0x11,0x11,0x0e,0x00
0001b0  11111111          DCB      0x11,0x11,0x11,0x11
0001b4  110a0400          DCB      0x11,0x0a,0x04,0x00
0001b8  11111115          DCB      0x11,0x11,0x11,0x15
0001bc  15150a00          DCB      0x15,0x15,0x0a,0x00
0001c0  11110a04          DCB      0x11,0x11,0x0a,0x04
0001c4  0a111100          DCB      0x0a,0x11,0x11,0x00
0001c8  11110a04          DCB      0x11,0x11,0x0a,0x04
0001cc  04040400          DCB      0x04,0x04,0x04,0x00
0001d0  1f10080e          DCB      0x1f,0x10,0x08,0x0e
0001d4  02011f00          DCB      0x02,0x01,0x1f,0x00
0001d8  1e020202          DCB      0x1e,0x02,0x02,0x02
0001dc  02021e00          DCB      0x02,0x02,0x1e,0x00
0001e0  00010204          DCB      0x00,0x01,0x02,0x04
0001e4  08100000          DCB      0x08,0x10,0x00,0x00
0001e8  1e101010          DCB      0x1e,0x10,0x10,0x10
0001ec  10101e00          DCB      0x10,0x10,0x1e,0x00
0001f0  040a1100          DCB      0x04,0x0a,0x11,0x00
0001f4  00000000          DCB      0x00,0x00,0x00,0x00
0001f8  00000000          DCB      0x00,0x00,0x00,0x00
0001fc  00001f00          DCB      0x00,0x00,0x1f,0x00
000200  06060408          DCB      0x06,0x06,0x04,0x08
000204  00000000          DCB      0x00,0x00,0x00,0x00
000208  00000608          DCB      0x00,0x00,0x06,0x08
00020c  0e091e00          DCB      0x0e,0x09,0x1e,0x00
000210  01010d13          DCB      0x01,0x01,0x0d,0x13
000214  11130d00          DCB      0x11,0x13,0x0d,0x00
000218  00000e11          DCB      0x00,0x00,0x0e,0x11
00021c  01110e00          DCB      0x01,0x11,0x0e,0x00
000220  10101619          DCB      0x10,0x10,0x16,0x19
000224  11191600          DCB      0x11,0x19,0x16,0x00
000228  00000e11          DCB      0x00,0x00,0x0e,0x11
00022c  1f010e00          DCB      0x1f,0x01,0x0e,0x00
000230  0814040e          DCB      0x08,0x14,0x04,0x0e
000234  04040400          DCB      0x04,0x04,0x04,0x00
000238  00000e19          DCB      0x00,0x00,0x0e,0x19
00023c  1916100e          DCB      0x19,0x16,0x10,0x0e
000240  01010d13          DCB      0x01,0x01,0x0d,0x13
000244  11111100          DCB      0x11,0x11,0x11,0x00
000248  04000604          DCB      0x04,0x00,0x06,0x04
00024c  04040e00          DCB      0x04,0x04,0x0e,0x00
000250  08000808          DCB      0x08,0x00,0x08,0x08
000254  08090600          DCB      0x08,0x09,0x06,0x00
000258  01010905          DCB      0x01,0x01,0x09,0x05
00025c  03050900          DCB      0x03,0x05,0x09,0x00
000260  06040404          DCB      0x06,0x04,0x04,0x04
000264  04040e00          DCB      0x04,0x04,0x0e,0x00
000268  00000b15          DCB      0x00,0x00,0x0b,0x15
00026c  15151500          DCB      0x15,0x15,0x15,0x00
000270  00000d13          DCB      0x00,0x00,0x0d,0x13
000274  11111100          DCB      0x11,0x11,0x11,0x00
000278  00000e11          DCB      0x00,0x00,0x0e,0x11
00027c  11110e00          DCB      0x11,0x11,0x0e,0x00
000280  00000d13          DCB      0x00,0x00,0x0d,0x13
000284  130d0101          DCB      0x13,0x0d,0x01,0x01
000288  00001619          DCB      0x00,0x00,0x16,0x19
00028c  19161010          DCB      0x19,0x16,0x10,0x10
000290  00000d13          DCB      0x00,0x00,0x0d,0x13
000294  01010100          DCB      0x01,0x01,0x01,0x00
000298  00001e01          DCB      0x00,0x00,0x1e,0x01
00029c  0e100f00          DCB      0x0e,0x10,0x0f,0x00
0002a0  04041f04          DCB      0x04,0x04,0x1f,0x04
0002a4  04140800          DCB      0x04,0x14,0x08,0x00
0002a8  00001111          DCB      0x00,0x00,0x11,0x11
0002ac  11191600          DCB      0x11,0x19,0x16,0x00
0002b0  00001111          DCB      0x00,0x00,0x11,0x11
0002b4  110a0400          DCB      0x11,0x0a,0x04,0x00
0002b8  00001111          DCB      0x00,0x00,0x11,0x11
0002bc  15150a00          DCB      0x15,0x15,0x0a,0x00
0002c0  0000110a          DCB      0x00,0x00,0x11,0x0a
0002c4  040a1100          DCB      0x04,0x0a,0x11,0x00
0002c8  00001111          DCB      0x00,0x00,0x11,0x11
0002cc  1e10110e          DCB      0x1e,0x10,0x11,0x0e
0002d0  00001f08          DCB      0x00,0x00,0x1f,0x08
0002d4  04021f00          DCB      0x04,0x02,0x1f,0x00
0002d8  08040402          DCB      0x08,0x04,0x04,0x02
0002dc  04040800          DCB      0x04,0x04,0x08,0x00
0002e0  04040400          DCB      0x04,0x04,0x04,0x00
0002e4  04040400          DCB      0x04,0x04,0x04,0x00
0002e8  02040408          DCB      0x02,0x04,0x04,0x08
0002ec  04040200          DCB      0x04,0x04,0x02,0x00
0002f0  02150800          DCB      0x02,0x15,0x08,0x00
0002f4  00000000          DCB      0x00,0x00,0x00,0x00
0002f8  00000000          DCB      0x00,0x00,0x00,0x00
0002fc  00000000          DCB      0x00,0x00,0x00,0x00
000300  00000c12          DCB      0x00,0x00,0x0c,0x12
000304  120c0000          DCB      0x12,0x0c,0x00,0x00
000308  00000c1e          DCB      0x00,0x00,0x0c,0x1e
00030c  1e0c0000          DCB      0x1e,0x0c,0x00,0x00
000310  00001e12          DCB      0x00,0x00,0x1e,0x12
000314  121e0000          DCB      0x12,0x1e,0x00,0x00
000318  00001e1e          DCB      0x00,0x00,0x1e,0x1e
00031c  1e1e0000          DCB      0x1e,0x1e,0x00,0x00
000320  00000c0c          DCB      0x00,0x00,0x0c,0x0c
000324  121e0000          DCB      0x12,0x1e,0x00,0x00
000328  00000c0c          DCB      0x00,0x00,0x0c,0x0c
00032c  1e1e0000          DCB      0x1e,0x1e,0x00,0x00
000330  00001e12          DCB      0x00,0x00,0x1e,0x12
000334  0c0c0000          DCB      0x0c,0x0c,0x00,0x00
000338  00001e1e          DCB      0x00,0x00,0x1e,0x1e
00033c  0c0c0000          DCB      0x0c,0x0c,0x00,0x00
000340  00001816          DCB      0x00,0x00,0x18,0x16
000344  16180000          DCB      0x16,0x18,0x00,0x00
000348  0000181e          DCB      0x00,0x00,0x18,0x1e
00034c  1e180000          DCB      0x1e,0x18,0x00,0x00
000350  0000061a          DCB      0x00,0x00,0x06,0x1a
000354  1a060000          DCB      0x1a,0x06,0x00,0x00
000358  0000061e          DCB      0x00,0x00,0x06,0x1e
00035c  1e060000          DCB      0x1e,0x06,0x00,0x00
000360  00000c12          DCB      0x00,0x00,0x0c,0x12
000364  120c0000          DCB      0x12,0x0c,0x00,0x00
000368  00000c1e          DCB      0x00,0x00,0x0c,0x1e
00036c  1e0c0000          DCB      0x1e,0x0c,0x00,0x00
000370  00001e12          DCB      0x00,0x00,0x1e,0x12
000374  121e0000          DCB      0x12,0x1e,0x00,0x00
000378  00001e1e          DCB      0x00,0x00,0x1e,0x1e
00037c  1e1e0000          DCB      0x1e,0x1e,0x00,0x00
                  Font_16x24_h
000380  00000000          DCW      0x0000,0x0000
000384  00000000          DCW      0x0000,0x0000
000388  00000000          DCW      0x0000,0x0000
00038c  00000000          DCW      0x0000,0x0000
000390  00000000          DCW      0x0000,0x0000
000394  00000000          DCW      0x0000,0x0000
000398  00000000          DCW      0x0000,0x0000
00039c  00000000          DCW      0x0000,0x0000
0003a0  00000000          DCW      0x0000,0x0000
0003a4  00000000          DCW      0x0000,0x0000
0003a8  00000000          DCW      0x0000,0x0000
0003ac  00000000          DCW      0x0000,0x0000
0003b0  00000180          DCW      0x0000,0x0180
0003b4  01800180          DCW      0x0180,0x0180
0003b8  01800180          DCW      0x0180,0x0180
0003bc  01800180          DCW      0x0180,0x0180
0003c0  01800180          DCW      0x0180,0x0180
0003c4  01800180          DCW      0x0180,0x0180
0003c8  01800180          DCW      0x0180,0x0180
0003cc  00000000          DCW      0x0000,0x0000
0003d0  01800180          DCW      0x0180,0x0180
0003d4  00000000          DCW      0x0000,0x0000
0003d8  00000000          DCW      0x0000,0x0000
0003dc  00000000          DCW      0x0000,0x0000
0003e0  00000000          DCW      0x0000,0x0000
0003e4  00cc00cc          DCW      0x00cc,0x00cc
0003e8  00cc00cc          DCW      0x00cc,0x00cc
0003ec  00cc00cc          DCW      0x00cc,0x00cc
0003f0  00000000          DCW      0x0000,0x0000
0003f4  00000000          DCW      0x0000,0x0000
0003f8  00000000          DCW      0x0000,0x0000
0003fc  00000000          DCW      0x0000,0x0000
000400  00000000          DCW      0x0000,0x0000
000404  00000000          DCW      0x0000,0x0000
000408  00000000          DCW      0x0000,0x0000
00040c  00000000          DCW      0x0000,0x0000
000410  00000000          DCW      0x0000,0x0000
000414  00000000          DCW      0x0000,0x0000
000418  00000000          DCW      0x0000,0x0000
00041c  0c600c60          DCW      0x0c60,0x0c60
000420  0c600630          DCW      0x0c60,0x0630
000424  06301ffe          DCW      0x0630,0x1ffe
000428  1ffe0630          DCW      0x1ffe,0x0630
00042c  07380318          DCW      0x0738,0x0318
000430  1ffe1ffe          DCW      0x1ffe,0x1ffe
000434  03180318          DCW      0x0318,0x0318
000438  018c018c          DCW      0x018c,0x018c
00043c  018c0000          DCW      0x018c,0x0000
000440  00000080          DCW      0x0000,0x0080
000444  03e00ff8          DCW      0x03e0,0x0ff8
000448  0e9c1c8c          DCW      0x0e9c,0x1c8c
00044c  188c008c          DCW      0x188c,0x008c
000450  009801f8          DCW      0x0098,0x01f8
000454  07e00e80          DCW      0x07e0,0x0e80
000458  1c80188c          DCW      0x1c80,0x188c
00045c  188c189c          DCW      0x188c,0x189c
000460  0cb80ff0          DCW      0x0cb8,0x0ff0
000464  03e00080          DCW      0x03e0,0x0080
000468  00800000          DCW      0x0080,0x0000
00046c  00000000          DCW      0x0000,0x0000
000470  00000000          DCW      0x0000,0x0000
000474  0000180e          DCW      0x0000,0x180e
000478  0c1b0c11          DCW      0x0c1b,0x0c11
00047c  06110611          DCW      0x0611,0x0611
000480  03110311          DCW      0x0311,0x0311
000484  019b018e          DCW      0x019b,0x018e
000488  38c06cc0          DCW      0x38c0,0x6cc0
00048c  44604460          DCW      0x4460,0x4460
000490  44304430          DCW      0x4430,0x4430
000494  44186c18          DCW      0x4418,0x6c18
000498  380c0000          DCW      0x380c,0x0000
00049c  00000000          DCW      0x0000,0x0000
0004a0  000001e0          DCW      0x0000,0x01e0
0004a4  03f00738          DCW      0x03f0,0x0738
0004a8  06180618          DCW      0x0618,0x0618
0004ac  033001f0          DCW      0x0330,0x01f0
0004b0  00f000f8          DCW      0x00f0,0x00f8
0004b4  319c330e          DCW      0x319c,0x330e
0004b8  1e061c06          DCW      0x1e06,0x1c06
0004bc  1c063f06          DCW      0x1c06,0x3f06
0004c0  73fc21f0          DCW      0x73fc,0x21f0
0004c4  00000000          DCW      0x0000,0x0000
0004c8  00000000          DCW      0x0000,0x0000
0004cc  00000000          DCW      0x0000,0x0000
0004d0  00000000          DCW      0x0000,0x0000
0004d4  000c000c          DCW      0x000c,0x000c
0004d8  000c000c          DCW      0x000c,0x000c
0004dc  000c000c          DCW      0x000c,0x000c
0004e0  00000000          DCW      0x0000,0x0000
0004e4  00000000          DCW      0x0000,0x0000
0004e8  00000000          DCW      0x0000,0x0000
0004ec  00000000          DCW      0x0000,0x0000
0004f0  00000000          DCW      0x0000,0x0000
0004f4  00000000          DCW      0x0000,0x0000
0004f8  00000000          DCW      0x0000,0x0000
0004fc  00000000          DCW      0x0000,0x0000
000500  00000200          DCW      0x0000,0x0200
000504  03000180          DCW      0x0300,0x0180
000508  00c000c0          DCW      0x00c0,0x00c0
00050c  00600060          DCW      0x0060,0x0060
000510  00300030          DCW      0x0030,0x0030
000514  00300030          DCW      0x0030,0x0030
000518  00300030          DCW      0x0030,0x0030
00051c  00300030          DCW      0x0030,0x0030
000520  00600060          DCW      0x0060,0x0060
000524  00c000c0          DCW      0x00c0,0x00c0
000528  01800300          DCW      0x0180,0x0300
00052c  02000000          DCW      0x0200,0x0000
000530  00000020          DCW      0x0000,0x0020
000534  006000c0          DCW      0x0060,0x00c0
000538  01800180          DCW      0x0180,0x0180
00053c  03000300          DCW      0x0300,0x0300
000540  06000600          DCW      0x0600,0x0600
000544  06000600          DCW      0x0600,0x0600
000548  06000600          DCW      0x0600,0x0600
00054c  06000600          DCW      0x0600,0x0600
000550  03000300          DCW      0x0300,0x0300
000554  01800180          DCW      0x0180,0x0180
000558  00c00060          DCW      0x00c0,0x0060
00055c  00200000          DCW      0x0020,0x0000
000560  00000000          DCW      0x0000,0x0000
000564  00000000          DCW      0x0000,0x0000
000568  00000000          DCW      0x0000,0x0000
00056c  00c000c0          DCW      0x00c0,0x00c0
000570  06d807f8          DCW      0x06d8,0x07f8
000574  01e00330          DCW      0x01e0,0x0330
000578  07380000          DCW      0x0738,0x0000
00057c  00000000          DCW      0x0000,0x0000
000580  00000000          DCW      0x0000,0x0000
000584  00000000          DCW      0x0000,0x0000
000588  00000000          DCW      0x0000,0x0000
00058c  00000000          DCW      0x0000,0x0000
000590  00000000          DCW      0x0000,0x0000
000594  00000000          DCW      0x0000,0x0000
000598  00000000          DCW      0x0000,0x0000
00059c  01800180          DCW      0x0180,0x0180
0005a0  01800180          DCW      0x0180,0x0180
0005a4  01803ffc          DCW      0x0180,0x3ffc
0005a8  3ffc0180          DCW      0x3ffc,0x0180
0005ac  01800180          DCW      0x0180,0x0180
0005b0  01800180          DCW      0x0180,0x0180
0005b4  00000000          DCW      0x0000,0x0000
0005b8  00000000          DCW      0x0000,0x0000
0005bc  00000000          DCW      0x0000,0x0000
0005c0  00000000          DCW      0x0000,0x0000
0005c4  00000000          DCW      0x0000,0x0000
0005c8  00000000          DCW      0x0000,0x0000
0005cc  00000000          DCW      0x0000,0x0000
0005d0  00000000          DCW      0x0000,0x0000
0005d4  00000000          DCW      0x0000,0x0000
0005d8  00000000          DCW      0x0000,0x0000
0005dc  00000000          DCW      0x0000,0x0000
0005e0  00000180          DCW      0x0000,0x0180
0005e4  01800100          DCW      0x0180,0x0100
0005e8  01000080          DCW      0x0100,0x0080
0005ec  00000000          DCW      0x0000,0x0000
0005f0  00000000          DCW      0x0000,0x0000
0005f4  00000000          DCW      0x0000,0x0000
0005f8  00000000          DCW      0x0000,0x0000
0005fc  00000000          DCW      0x0000,0x0000
000600  00000000          DCW      0x0000,0x0000
000604  00000000          DCW      0x0000,0x0000
000608  07e007e0          DCW      0x07e0,0x07e0
00060c  00000000          DCW      0x0000,0x0000
000610  00000000          DCW      0x0000,0x0000
000614  00000000          DCW      0x0000,0x0000
000618  00000000          DCW      0x0000,0x0000
00061c  00000000          DCW      0x0000,0x0000
000620  00000000          DCW      0x0000,0x0000
000624  00000000          DCW      0x0000,0x0000
000628  00000000          DCW      0x0000,0x0000
00062c  00000000          DCW      0x0000,0x0000
000630  00000000          DCW      0x0000,0x0000
000634  00000000          DCW      0x0000,0x0000
000638  00000000          DCW      0x0000,0x0000
00063c  00000000          DCW      0x0000,0x0000
000640  000000c0          DCW      0x0000,0x00c0
000644  00c00000          DCW      0x00c0,0x0000
000648  00000000          DCW      0x0000,0x0000
00064c  00000000          DCW      0x0000,0x0000
000650  00000c00          DCW      0x0000,0x0c00
000654  0c000600          DCW      0x0c00,0x0600
000658  06000600          DCW      0x0600,0x0600
00065c  03000300          DCW      0x0300,0x0300
000660  03000380          DCW      0x0300,0x0380
000664  01800180          DCW      0x0180,0x0180
000668  018000c0          DCW      0x0180,0x00c0
00066c  00c000c0          DCW      0x00c0,0x00c0
000670  00600060          DCW      0x0060,0x0060
000674  00000000          DCW      0x0000,0x0000
000678  00000000          DCW      0x0000,0x0000
00067c  00000000          DCW      0x0000,0x0000
000680  000003e0          DCW      0x0000,0x03e0
000684  07f00e38          DCW      0x07f0,0x0e38
000688  0c18180c          DCW      0x0c18,0x180c
00068c  180c180c          DCW      0x180c,0x180c
000690  180c180c          DCW      0x180c,0x180c
000694  180c180c          DCW      0x180c,0x180c
000698  180c180c          DCW      0x180c,0x180c
00069c  0c180e38          DCW      0x0c18,0x0e38
0006a0  07f003e0          DCW      0x07f0,0x03e0
0006a4  00000000          DCW      0x0000,0x0000
0006a8  00000000          DCW      0x0000,0x0000
0006ac  00000000          DCW      0x0000,0x0000
0006b0  00000100          DCW      0x0000,0x0100
0006b4  018001c0          DCW      0x0180,0x01c0
0006b8  01f00198          DCW      0x01f0,0x0198
0006bc  01880180          DCW      0x0188,0x0180
0006c0  01800180          DCW      0x0180,0x0180
0006c4  01800180          DCW      0x0180,0x0180
0006c8  01800180          DCW      0x0180,0x0180
0006cc  01800180          DCW      0x0180,0x0180
0006d0  01800180          DCW      0x0180,0x0180
0006d4  00000000          DCW      0x0000,0x0000
0006d8  00000000          DCW      0x0000,0x0000
0006dc  00000000          DCW      0x0000,0x0000
0006e0  000003e0          DCW      0x0000,0x03e0
0006e4  0ff80c18          DCW      0x0ff8,0x0c18
0006e8  180c180c          DCW      0x180c,0x180c
0006ec  18001800          DCW      0x1800,0x1800
0006f0  0c000600          DCW      0x0c00,0x0600
0006f4  03000180          DCW      0x0300,0x0180
0006f8  00c00060          DCW      0x00c0,0x0060
0006fc  00300018          DCW      0x0030,0x0018
000700  1ffc1ffc          DCW      0x1ffc,0x1ffc
000704  00000000          DCW      0x0000,0x0000
000708  00000000          DCW      0x0000,0x0000
00070c  00000000          DCW      0x0000,0x0000
000710  000001e0          DCW      0x0000,0x01e0
000714  07f80e18          DCW      0x07f8,0x0e18
000718  0c0c0c0c          DCW      0x0c0c,0x0c0c
00071c  0c000600          DCW      0x0c00,0x0600
000720  03c007c0          DCW      0x03c0,0x07c0
000724  0c001800          DCW      0x0c00,0x1800
000728  1800180c          DCW      0x1800,0x180c
00072c  180c0c18          DCW      0x180c,0x0c18
000730  07f803e0          DCW      0x07f8,0x03e0
000734  00000000          DCW      0x0000,0x0000
000738  00000000          DCW      0x0000,0x0000
00073c  00000000          DCW      0x0000,0x0000
000740  00000c00          DCW      0x0000,0x0c00
000744  0e000f00          DCW      0x0e00,0x0f00
000748  0f000d80          DCW      0x0f00,0x0d80
00074c  0cc00c60          DCW      0x0cc0,0x0c60
000750  0c600c30          DCW      0x0c60,0x0c30
000754  0c180c0c          DCW      0x0c18,0x0c0c
000758  3ffc3ffc          DCW      0x3ffc,0x3ffc
00075c  0c000c00          DCW      0x0c00,0x0c00
000760  0c000c00          DCW      0x0c00,0x0c00
000764  00000000          DCW      0x0000,0x0000
000768  00000000          DCW      0x0000,0x0000
00076c  00000000          DCW      0x0000,0x0000
000770  00000ff8          DCW      0x0000,0x0ff8
000774  0ff80018          DCW      0x0ff8,0x0018
000778  0018000c          DCW      0x0018,0x000c
00077c  03ec07fc          DCW      0x03ec,0x07fc
000780  0e1c1c00          DCW      0x0e1c,0x1c00
000784  18001800          DCW      0x1800,0x1800
000788  1800180c          DCW      0x1800,0x180c
00078c  0c1c0e18          DCW      0x0c1c,0x0e18
000790  07f803e0          DCW      0x07f8,0x03e0
000794  00000000          DCW      0x0000,0x0000
000798  00000000          DCW      0x0000,0x0000
00079c  00000000          DCW      0x0000,0x0000
0007a0  000007c0          DCW      0x0000,0x07c0
0007a4  0ff01c38          DCW      0x0ff0,0x1c38
0007a8  18180018          DCW      0x1818,0x0018
0007ac  000c03cc          DCW      0x000c,0x03cc
0007b0  0fec0e3c          DCW      0x0fec,0x0e3c
0007b4  1c1c180c          DCW      0x1c1c,0x180c
0007b8  180c180c          DCW      0x180c,0x180c
0007bc  1c180e38          DCW      0x1c18,0x0e38
0007c0  07f003e0          DCW      0x07f0,0x03e0
0007c4  00000000          DCW      0x0000,0x0000
0007c8  00000000          DCW      0x0000,0x0000
0007cc  00000000          DCW      0x0000,0x0000
0007d0  00001ffc          DCW      0x0000,0x1ffc
0007d4  1ffc0c00          DCW      0x1ffc,0x0c00
0007d8  06000600          DCW      0x0600,0x0600
0007dc  03000380          DCW      0x0300,0x0380
0007e0  018001c0          DCW      0x0180,0x01c0
0007e4  00c000e0          DCW      0x00c0,0x00e0
0007e8  00600060          DCW      0x0060,0x0060
0007ec  00700030          DCW      0x0070,0x0030
0007f0  00300030          DCW      0x0030,0x0030
0007f4  00000000          DCW      0x0000,0x0000
0007f8  00000000          DCW      0x0000,0x0000
0007fc  00000000          DCW      0x0000,0x0000
000800  000003e0          DCW      0x0000,0x03e0
000804  07f00e38          DCW      0x07f0,0x0e38
000808  0c180c18          DCW      0x0c18,0x0c18
00080c  0c180638          DCW      0x0c18,0x0638
000810  07f007f0          DCW      0x07f0,0x07f0
000814  0c18180c          DCW      0x0c18,0x180c
000818  180c180c          DCW      0x180c,0x180c
00081c  180c0c38          DCW      0x180c,0x0c38
000820  0ff803e0          DCW      0x0ff8,0x03e0
000824  00000000          DCW      0x0000,0x0000
000828  00000000          DCW      0x0000,0x0000
00082c  00000000          DCW      0x0000,0x0000
000830  000003e0          DCW      0x0000,0x03e0
000834  07f00e38          DCW      0x07f0,0x0e38
000838  0c1c180c          DCW      0x0c1c,0x180c
00083c  180c180c          DCW      0x180c,0x180c
000840  1c1c1e38          DCW      0x1c1c,0x1e38
000844  1bf819e0          DCW      0x1bf8,0x19e0
000848  18000c00          DCW      0x1800,0x0c00
00084c  0c000e1c          DCW      0x0c00,0x0e1c
000850  07f801f0          DCW      0x07f8,0x01f0
000854  00000000          DCW      0x0000,0x0000
000858  00000000          DCW      0x0000,0x0000
00085c  00000000          DCW      0x0000,0x0000
000860  00000000          DCW      0x0000,0x0000
000864  00000000          DCW      0x0000,0x0000
000868  00000000          DCW      0x0000,0x0000
00086c  01800180          DCW      0x0180,0x0180
000870  00000000          DCW      0x0000,0x0000
000874  00000000          DCW      0x0000,0x0000
000878  00000000          DCW      0x0000,0x0000
00087c  00000000          DCW      0x0000,0x0000
000880  01800180          DCW      0x0180,0x0180
000884  00000000          DCW      0x0000,0x0000
000888  00000000          DCW      0x0000,0x0000
00088c  00000000          DCW      0x0000,0x0000
000890  00000000          DCW      0x0000,0x0000
000894  00000000          DCW      0x0000,0x0000
000898  00000000          DCW      0x0000,0x0000
00089c  01800180          DCW      0x0180,0x0180
0008a0  00000000          DCW      0x0000,0x0000
0008a4  00000000          DCW      0x0000,0x0000
0008a8  00000000          DCW      0x0000,0x0000
0008ac  00000000          DCW      0x0000,0x0000
0008b0  01800180          DCW      0x0180,0x0180
0008b4  01000100          DCW      0x0100,0x0100
0008b8  00800000          DCW      0x0080,0x0000
0008bc  00000000          DCW      0x0000,0x0000
0008c0  00000000          DCW      0x0000,0x0000
0008c4  00000000          DCW      0x0000,0x0000
0008c8  00000000          DCW      0x0000,0x0000
0008cc  00000000          DCW      0x0000,0x0000
0008d0  10001c00          DCW      0x1000,0x1c00
0008d4  0f8003e0          DCW      0x0f80,0x03e0
0008d8  00f80018          DCW      0x00f8,0x0018
0008dc  00f803e0          DCW      0x00f8,0x03e0
0008e0  0f801c00          DCW      0x0f80,0x1c00
0008e4  10000000          DCW      0x1000,0x0000
0008e8  00000000          DCW      0x0000,0x0000
0008ec  00000000          DCW      0x0000,0x0000
0008f0  00000000          DCW      0x0000,0x0000
0008f4  00000000          DCW      0x0000,0x0000
0008f8  00000000          DCW      0x0000,0x0000
0008fc  00000000          DCW      0x0000,0x0000
000900  1ff80000          DCW      0x1ff8,0x0000
000904  00000000          DCW      0x0000,0x0000
000908  1ff80000          DCW      0x1ff8,0x0000
00090c  00000000          DCW      0x0000,0x0000
000910  00000000          DCW      0x0000,0x0000
000914  00000000          DCW      0x0000,0x0000
000918  00000000          DCW      0x0000,0x0000
00091c  00000000          DCW      0x0000,0x0000
000920  00000000          DCW      0x0000,0x0000
000924  00000000          DCW      0x0000,0x0000
000928  00000000          DCW      0x0000,0x0000
00092c  00000000          DCW      0x0000,0x0000
000930  00080038          DCW      0x0008,0x0038
000934  01f007c0          DCW      0x01f0,0x07c0
000938  1f001800          DCW      0x1f00,0x1800
00093c  1f0007c0          DCW      0x1f00,0x07c0
000940  01f00038          DCW      0x01f0,0x0038
000944  00080000          DCW      0x0008,0x0000
000948  00000000          DCW      0x0000,0x0000
00094c  00000000          DCW      0x0000,0x0000
000950  000003e0          DCW      0x0000,0x03e0
000954  0ff80c18          DCW      0x0ff8,0x0c18
000958  180c180c          DCW      0x180c,0x180c
00095c  18000c00          DCW      0x1800,0x0c00
000960  06000300          DCW      0x0600,0x0300
000964  018000c0          DCW      0x0180,0x00c0
000968  00c000c0          DCW      0x00c0,0x00c0
00096c  00000000          DCW      0x0000,0x0000
000970  00c000c0          DCW      0x00c0,0x00c0
000974  00000000          DCW      0x0000,0x0000
000978  00000000          DCW      0x0000,0x0000
00097c  00000000          DCW      0x0000,0x0000
000980  00000000          DCW      0x0000,0x0000
000984  07e01818          DCW      0x07e0,0x1818
000988  200429c2          DCW      0x2004,0x29c2
00098c  4a224411          DCW      0x4a22,0x4411
000990  44094409          DCW      0x4409,0x4409
000994  44092209          DCW      0x4409,0x2209
000998  13110ce2          DCW      0x1311,0x0ce2
00099c  40022004          DCW      0x4002,0x2004
0009a0  181807e0          DCW      0x1818,0x07e0
0009a4  00000000          DCW      0x0000,0x0000
0009a8  00000000          DCW      0x0000,0x0000
0009ac  00000000          DCW      0x0000,0x0000
0009b0  00000380          DCW      0x0000,0x0380
0009b4  038006c0          DCW      0x0380,0x06c0
0009b8  06c006c0          DCW      0x06c0,0x06c0
0009bc  0c600c60          DCW      0x0c60,0x0c60
0009c0  18301830          DCW      0x1830,0x1830
0009c4  18303ff8          DCW      0x1830,0x3ff8
0009c8  3ff8701c          DCW      0x3ff8,0x701c
0009cc  600c600c          DCW      0x600c,0x600c
0009d0  c006c006          DCW      0xc006,0xc006
0009d4  00000000          DCW      0x0000,0x0000
0009d8  00000000          DCW      0x0000,0x0000
0009dc  00000000          DCW      0x0000,0x0000
0009e0  000003fc          DCW      0x0000,0x03fc
0009e4  0ffc0c0c          DCW      0x0ffc,0x0c0c
0009e8  180c180c          DCW      0x180c,0x180c
0009ec  180c0c0c          DCW      0x180c,0x0c0c
0009f0  07fc0ffc          DCW      0x07fc,0x0ffc
0009f4  180c300c          DCW      0x180c,0x300c
0009f8  300c300c          DCW      0x300c,0x300c
0009fc  300c180c          DCW      0x300c,0x180c
000a00  1ffc07fc          DCW      0x1ffc,0x07fc
000a04  00000000          DCW      0x0000,0x0000
000a08  00000000          DCW      0x0000,0x0000
000a0c  00000000          DCW      0x0000,0x0000
000a10  000007c0          DCW      0x0000,0x07c0
000a14  1ff03838          DCW      0x1ff0,0x3838
000a18  301c700c          DCW      0x301c,0x700c
000a1c  60060006          DCW      0x6006,0x0006
000a20  00060006          DCW      0x0006,0x0006
000a24  00060006          DCW      0x0006,0x0006
000a28  00066006          DCW      0x0006,0x6006
000a2c  700c301c          DCW      0x700c,0x301c
000a30  1ff007e0          DCW      0x1ff0,0x07e0
000a34  00000000          DCW      0x0000,0x0000
000a38  00000000          DCW      0x0000,0x0000
000a3c  00000000          DCW      0x0000,0x0000
000a40  000003fe          DCW      0x0000,0x03fe
000a44  0ffe0e06          DCW      0x0ffe,0x0e06
000a48  18061806          DCW      0x1806,0x1806
000a4c  30063006          DCW      0x3006,0x3006
000a50  30063006          DCW      0x3006,0x3006
000a54  30063006          DCW      0x3006,0x3006
000a58  30061806          DCW      0x3006,0x1806
000a5c  18060e06          DCW      0x1806,0x0e06
000a60  0ffe03fe          DCW      0x0ffe,0x03fe
000a64  00000000          DCW      0x0000,0x0000
000a68  00000000          DCW      0x0000,0x0000
000a6c  00000000          DCW      0x0000,0x0000
000a70  00003ffc          DCW      0x0000,0x3ffc
000a74  3ffc000c          DCW      0x3ffc,0x000c
000a78  000c000c          DCW      0x000c,0x000c
000a7c  000c000c          DCW      0x000c,0x000c
000a80  1ffc1ffc          DCW      0x1ffc,0x1ffc
000a84  000c000c          DCW      0x000c,0x000c
000a88  000c000c          DCW      0x000c,0x000c
000a8c  000c000c          DCW      0x000c,0x000c
000a90  3ffc3ffc          DCW      0x3ffc,0x3ffc
000a94  00000000          DCW      0x0000,0x0000
000a98  00000000          DCW      0x0000,0x0000
000a9c  00000000          DCW      0x0000,0x0000
000aa0  00003ff8          DCW      0x0000,0x3ff8
000aa4  3ff80018          DCW      0x3ff8,0x0018
000aa8  00180018          DCW      0x0018,0x0018
000aac  00180018          DCW      0x0018,0x0018
000ab0  1ff81ff8          DCW      0x1ff8,0x1ff8
000ab4  00180018          DCW      0x0018,0x0018
000ab8  00180018          DCW      0x0018,0x0018
000abc  00180018          DCW      0x0018,0x0018
000ac0  00180018          DCW      0x0018,0x0018
000ac4  00000000          DCW      0x0000,0x0000
000ac8  00000000          DCW      0x0000,0x0000
000acc  00000000          DCW      0x0000,0x0000
000ad0  00000fe0          DCW      0x0000,0x0fe0
000ad4  3ff8783c          DCW      0x3ff8,0x783c
000ad8  600ee006          DCW      0x600e,0xe006
000adc  c0070003          DCW      0xc007,0x0003
000ae0  0003fe03          DCW      0x0003,0xfe03
000ae4  fe03c003          DCW      0xfe03,0xc003
000ae8  c007c006          DCW      0xc007,0xc006
000aec  c00ef03c          DCW      0xc00e,0xf03c
000af0  3ff80fe0          DCW      0x3ff8,0x0fe0
000af4  00000000          DCW      0x0000,0x0000
000af8  00000000          DCW      0x0000,0x0000
000afc  00000000          DCW      0x0000,0x0000
000b00  0000300c          DCW      0x0000,0x300c
000b04  300c300c          DCW      0x300c,0x300c
000b08  300c300c          DCW      0x300c,0x300c
000b0c  300c300c          DCW      0x300c,0x300c
000b10  3ffc3ffc          DCW      0x3ffc,0x3ffc
000b14  300c300c          DCW      0x300c,0x300c
000b18  300c300c          DCW      0x300c,0x300c
000b1c  300c300c          DCW      0x300c,0x300c
000b20  300c300c          DCW      0x300c,0x300c
000b24  00000000          DCW      0x0000,0x0000
000b28  00000000          DCW      0x0000,0x0000
000b2c  00000000          DCW      0x0000,0x0000
000b30  00000180          DCW      0x0000,0x0180
000b34  01800180          DCW      0x0180,0x0180
000b38  01800180          DCW      0x0180,0x0180
000b3c  01800180          DCW      0x0180,0x0180
000b40  01800180          DCW      0x0180,0x0180
000b44  01800180          DCW      0x0180,0x0180
000b48  01800180          DCW      0x0180,0x0180
000b4c  01800180          DCW      0x0180,0x0180
000b50  01800180          DCW      0x0180,0x0180
000b54  00000000          DCW      0x0000,0x0000
000b58  00000000          DCW      0x0000,0x0000
000b5c  00000000          DCW      0x0000,0x0000
000b60  00000600          DCW      0x0000,0x0600
000b64  06000600          DCW      0x0600,0x0600
000b68  06000600          DCW      0x0600,0x0600
000b6c  06000600          DCW      0x0600,0x0600
000b70  06000600          DCW      0x0600,0x0600
000b74  06000600          DCW      0x0600,0x0600
000b78  06000618          DCW      0x0600,0x0618
000b7c  06180738          DCW      0x0618,0x0738
000b80  03f001e0          DCW      0x03f0,0x01e0
000b84  00000000          DCW      0x0000,0x0000
000b88  00000000          DCW      0x0000,0x0000
000b8c  00000000          DCW      0x0000,0x0000
000b90  00003006          DCW      0x0000,0x3006
000b94  18060c06          DCW      0x1806,0x0c06
000b98  06060306          DCW      0x0606,0x0306
000b9c  018600c6          DCW      0x0186,0x00c6
000ba0  00660076          DCW      0x0066,0x0076
000ba4  00de018e          DCW      0x00de,0x018e
000ba8  03060606          DCW      0x0306,0x0606
000bac  0c061806          DCW      0x0c06,0x1806
000bb0  30066006          DCW      0x3006,0x6006
000bb4  00000000          DCW      0x0000,0x0000
000bb8  00000000          DCW      0x0000,0x0000
000bbc  00000000          DCW      0x0000,0x0000
000bc0  00000018          DCW      0x0000,0x0018
000bc4  00180018          DCW      0x0018,0x0018
000bc8  00180018          DCW      0x0018,0x0018
000bcc  00180018          DCW      0x0018,0x0018
000bd0  00180018          DCW      0x0018,0x0018
000bd4  00180018          DCW      0x0018,0x0018
000bd8  00180018          DCW      0x0018,0x0018
000bdc  00180018          DCW      0x0018,0x0018
000be0  1ff81ff8          DCW      0x1ff8,0x1ff8
000be4  00000000          DCW      0x0000,0x0000
000be8  00000000          DCW      0x0000,0x0000
000bec  00000000          DCW      0x0000,0x0000
000bf0  0000e00e          DCW      0x0000,0xe00e
000bf4  f01ef01e          DCW      0xf01e,0xf01e
000bf8  f01ed836          DCW      0xf01e,0xd836
000bfc  d836d836          DCW      0xd836,0xd836
000c00  d836cc66          DCW      0xd836,0xcc66
000c04  cc66cc66          DCW      0xcc66,0xcc66
000c08  c6c6c6c6          DCW      0xc6c6,0xc6c6
000c0c  c6c6c6c6          DCW      0xc6c6,0xc6c6
000c10  c386c386          DCW      0xc386,0xc386
000c14  00000000          DCW      0x0000,0x0000
000c18  00000000          DCW      0x0000,0x0000
000c1c  00000000          DCW      0x0000,0x0000
000c20  0000300c          DCW      0x0000,0x300c
000c24  301c303c          DCW      0x301c,0x303c
000c28  303c306c          DCW      0x303c,0x306c
000c2c  306c30cc          DCW      0x306c,0x30cc
000c30  30cc318c          DCW      0x30cc,0x318c
000c34  330c330c          DCW      0x330c,0x330c
000c38  360c360c          DCW      0x360c,0x360c
000c3c  3c0c3c0c          DCW      0x3c0c,0x3c0c
000c40  380c300c          DCW      0x380c,0x300c
000c44  00000000          DCW      0x0000,0x0000
000c48  00000000          DCW      0x0000,0x0000
000c4c  00000000          DCW      0x0000,0x0000
000c50  000007e0          DCW      0x0000,0x07e0
000c54  1ff8381c          DCW      0x1ff8,0x381c
000c58  700e6006          DCW      0x700e,0x6006
000c5c  c003c003          DCW      0xc003,0xc003
000c60  c003c003          DCW      0xc003,0xc003
000c64  c003c003          DCW      0xc003,0xc003
000c68  c0036006          DCW      0xc003,0x6006
000c6c  700e381c          DCW      0x700e,0x381c
000c70  1ff807e0          DCW      0x1ff8,0x07e0
000c74  00000000          DCW      0x0000,0x0000
000c78  00000000          DCW      0x0000,0x0000
000c7c  00000000          DCW      0x0000,0x0000
000c80  00000ffc          DCW      0x0000,0x0ffc
000c84  1ffc380c          DCW      0x1ffc,0x380c
000c88  300c300c          DCW      0x300c,0x300c
000c8c  300c300c          DCW      0x300c,0x300c
000c90  180c1ffc          DCW      0x180c,0x1ffc
000c94  07fc000c          DCW      0x07fc,0x000c
000c98  000c000c          DCW      0x000c,0x000c
000c9c  000c000c          DCW      0x000c,0x000c
000ca0  000c000c          DCW      0x000c,0x000c
000ca4  00000000          DCW      0x0000,0x0000
000ca8  00000000          DCW      0x0000,0x0000
000cac  00000000          DCW      0x0000,0x0000
000cb0  000007e0          DCW      0x0000,0x07e0
000cb4  1ff8381c          DCW      0x1ff8,0x381c
000cb8  700e6006          DCW      0x700e,0x6006
000cbc  e003c003          DCW      0xe003,0xc003
000cc0  c003c003          DCW      0xc003,0xc003
000cc4  c003c003          DCW      0xc003,0xc003
000cc8  e0076306          DCW      0xe007,0x6306
000ccc  3f0e3c1c          DCW      0x3f0e,0x3c1c
000cd0  3ff8f7e0          DCW      0x3ff8,0xf7e0
000cd4  c0000000          DCW      0xc000,0x0000
000cd8  00000000          DCW      0x0000,0x0000
000cdc  00000000          DCW      0x0000,0x0000
000ce0  00000ffe          DCW      0x0000,0x0ffe
000ce4  1ffe3806          DCW      0x1ffe,0x3806
000ce8  30063006          DCW      0x3006,0x3006
000cec  30063806          DCW      0x3006,0x3806
000cf0  1ffe07fe          DCW      0x1ffe,0x07fe
000cf4  03060606          DCW      0x0306,0x0606
000cf8  0c061806          DCW      0x0c06,0x1806
000cfc  18063006          DCW      0x1806,0x3006
000d00  30066006          DCW      0x3006,0x6006
000d04  00000000          DCW      0x0000,0x0000
000d08  00000000          DCW      0x0000,0x0000
000d0c  00000000          DCW      0x0000,0x0000
000d10  000003e0          DCW      0x0000,0x03e0
000d14  0ff80c1c          DCW      0x0ff8,0x0c1c
000d18  180c180c          DCW      0x180c,0x180c
000d1c  000c001c          DCW      0x000c,0x001c
000d20  03f80fe0          DCW      0x03f8,0x0fe0
000d24  1e003800          DCW      0x1e00,0x3800
000d28  30063006          DCW      0x3006,0x3006
000d2c  300e1c1c          DCW      0x300e,0x1c1c
000d30  0ff807e0          DCW      0x0ff8,0x07e0
000d34  00000000          DCW      0x0000,0x0000
000d38  00000000          DCW      0x0000,0x0000
000d3c  00000000          DCW      0x0000,0x0000
000d40  00007ffe          DCW      0x0000,0x7ffe
000d44  7ffe0180          DCW      0x7ffe,0x0180
000d48  01800180          DCW      0x0180,0x0180
000d4c  01800180          DCW      0x0180,0x0180
000d50  01800180          DCW      0x0180,0x0180
000d54  01800180          DCW      0x0180,0x0180
000d58  01800180          DCW      0x0180,0x0180
000d5c  01800180          DCW      0x0180,0x0180
000d60  01800180          DCW      0x0180,0x0180
000d64  00000000          DCW      0x0000,0x0000
000d68  00000000          DCW      0x0000,0x0000
000d6c  00000000          DCW      0x0000,0x0000
000d70  0000300c          DCW      0x0000,0x300c
000d74  300c300c          DCW      0x300c,0x300c
000d78  300c300c          DCW      0x300c,0x300c
000d7c  300c300c          DCW      0x300c,0x300c
000d80  300c300c          DCW      0x300c,0x300c
000d84  300c300c          DCW      0x300c,0x300c
000d88  300c300c          DCW      0x300c,0x300c
000d8c  300c1818          DCW      0x300c,0x1818
000d90  1ff807e0          DCW      0x1ff8,0x07e0
000d94  00000000          DCW      0x0000,0x0000
000d98  00000000          DCW      0x0000,0x0000
000d9c  00000000          DCW      0x0000,0x0000
000da0  00006003          DCW      0x0000,0x6003
000da4  30063006          DCW      0x3006,0x3006
000da8  3006180c          DCW      0x3006,0x180c
000dac  180c180c          DCW      0x180c,0x180c
000db0  0c180c18          DCW      0x0c18,0x0c18
000db4  0e380630          DCW      0x0e38,0x0630
000db8  06300770          DCW      0x0630,0x0770
000dbc  03600360          DCW      0x0360,0x0360
000dc0  01c001c0          DCW      0x01c0,0x01c0
000dc4  00000000          DCW      0x0000,0x0000
000dc8  00000000          DCW      0x0000,0x0000
000dcc  00000000          DCW      0x0000,0x0000
000dd0  00006003          DCW      0x0000,0x6003
000dd4  61c361c3          DCW      0x61c3,0x61c3
000dd8  61c33366          DCW      0x61c3,0x3366
000ddc  33663366          DCW      0x3366,0x3366
000de0  33663366          DCW      0x3366,0x3366
000de4  33661b6c          DCW      0x3366,0x1b6c
000de8  1b6c1b6c          DCW      0x1b6c,0x1b6c
000dec  1a2c1e3c          DCW      0x1a2c,0x1e3c
000df0  0e380e38          DCW      0x0e38,0x0e38
000df4  00000000          DCW      0x0000,0x0000
000df8  00000000          DCW      0x0000,0x0000
000dfc  00000000          DCW      0x0000,0x0000
000e00  0000e00f          DCW      0x0000,0xe00f
000e04  700c3018          DCW      0x700c,0x3018
000e08  18300c70          DCW      0x1830,0x0c70
000e0c  0e6007c0          DCW      0x0e60,0x07c0
000e10  03800380          DCW      0x0380,0x0380
000e14  03c006e0          DCW      0x03c0,0x06e0
000e18  0c701c30          DCW      0x0c70,0x1c30
000e1c  1818300c          DCW      0x1818,0x300c
000e20  600ee007          DCW      0x600e,0xe007
000e24  00000000          DCW      0x0000,0x0000
000e28  00000000          DCW      0x0000,0x0000
000e2c  00000000          DCW      0x0000,0x0000
000e30  0000c003          DCW      0x0000,0xc003
000e34  6006300c          DCW      0x6006,0x300c
000e38  381c1838          DCW      0x381c,0x1838
000e3c  0c300660          DCW      0x0c30,0x0660
000e40  07e003c0          DCW      0x07e0,0x03c0
000e44  01800180          DCW      0x0180,0x0180
000e48  01800180          DCW      0x0180,0x0180
000e4c  01800180          DCW      0x0180,0x0180
000e50  01800180          DCW      0x0180,0x0180
000e54  00000000          DCW      0x0000,0x0000
000e58  00000000          DCW      0x0000,0x0000
000e5c  00000000          DCW      0x0000,0x0000
000e60  00007ffc          DCW      0x0000,0x7ffc
000e64  7ffc6000          DCW      0x7ffc,0x6000
000e68  30001800          DCW      0x3000,0x1800
000e6c  0c000600          DCW      0x0c00,0x0600
000e70  03000180          DCW      0x0300,0x0180
000e74  00c00060          DCW      0x00c0,0x0060
000e78  00300018          DCW      0x0030,0x0018
000e7c  000c0006          DCW      0x000c,0x0006
000e80  7ffe7ffe          DCW      0x7ffe,0x7ffe
000e84  00000000          DCW      0x0000,0x0000
000e88  00000000          DCW      0x0000,0x0000
000e8c  00000000          DCW      0x0000,0x0000
000e90  000003e0          DCW      0x0000,0x03e0
000e94  03e00060          DCW      0x03e0,0x0060
000e98  00600060          DCW      0x0060,0x0060
000e9c  00600060          DCW      0x0060,0x0060
000ea0  00600060          DCW      0x0060,0x0060
000ea4  00600060          DCW      0x0060,0x0060
000ea8  00600060          DCW      0x0060,0x0060
000eac  00600060          DCW      0x0060,0x0060
000eb0  00600060          DCW      0x0060,0x0060
000eb4  00600060          DCW      0x0060,0x0060
000eb8  006003e0          DCW      0x0060,0x03e0
000ebc  03e00000          DCW      0x03e0,0x0000
000ec0  00000030          DCW      0x0000,0x0030
000ec4  00300060          DCW      0x0030,0x0060
000ec8  00600060          DCW      0x0060,0x0060
000ecc  00c000c0          DCW      0x00c0,0x00c0
000ed0  00c001c0          DCW      0x00c0,0x01c0
000ed4  01800180          DCW      0x0180,0x0180
000ed8  01800300          DCW      0x0180,0x0300
000edc  03000300          DCW      0x0300,0x0300
000ee0  06000600          DCW      0x0600,0x0600
000ee4  00000000          DCW      0x0000,0x0000
000ee8  00000000          DCW      0x0000,0x0000
000eec  00000000          DCW      0x0000,0x0000
000ef0  000003e0          DCW      0x0000,0x03e0
000ef4  03e00300          DCW      0x03e0,0x0300
000ef8  03000300          DCW      0x0300,0x0300
000efc  03000300          DCW      0x0300,0x0300
000f00  03000300          DCW      0x0300,0x0300
000f04  03000300          DCW      0x0300,0x0300
000f08  03000300          DCW      0x0300,0x0300
000f0c  03000300          DCW      0x0300,0x0300
000f10  03000300          DCW      0x0300,0x0300
000f14  03000300          DCW      0x0300,0x0300
000f18  030003e0          DCW      0x0300,0x03e0
000f1c  03e00000          DCW      0x03e0,0x0000
000f20  00000000          DCW      0x0000,0x0000
000f24  01c001c0          DCW      0x01c0,0x01c0
000f28  03600360          DCW      0x0360,0x0360
000f2c  03600630          DCW      0x0360,0x0630
000f30  06300c18          DCW      0x0630,0x0c18
000f34  0c180000          DCW      0x0c18,0x0000
000f38  00000000          DCW      0x0000,0x0000
000f3c  00000000          DCW      0x0000,0x0000
000f40  00000000          DCW      0x0000,0x0000
000f44  00000000          DCW      0x0000,0x0000
000f48  00000000          DCW      0x0000,0x0000
000f4c  00000000          DCW      0x0000,0x0000
000f50  00000000          DCW      0x0000,0x0000
000f54  00000000          DCW      0x0000,0x0000
000f58  00000000          DCW      0x0000,0x0000
000f5c  00000000          DCW      0x0000,0x0000
000f60  00000000          DCW      0x0000,0x0000
000f64  00000000          DCW      0x0000,0x0000
000f68  00000000          DCW      0x0000,0x0000
000f6c  00000000          DCW      0x0000,0x0000
000f70  0000ffff          DCW      0x0000,0xffff
000f74  ffff0000          DCW      0xffff,0x0000
000f78  00000000          DCW      0x0000,0x0000
000f7c  00000000          DCW      0x0000,0x0000
000f80  0000000c          DCW      0x0000,0x000c
000f84  000c000c          DCW      0x000c,0x000c
000f88  000c000c          DCW      0x000c,0x000c
000f8c  000c0000          DCW      0x000c,0x0000
000f90  00000000          DCW      0x0000,0x0000
000f94  00000000          DCW      0x0000,0x0000
000f98  00000000          DCW      0x0000,0x0000
000f9c  00000000          DCW      0x0000,0x0000
000fa0  00000000          DCW      0x0000,0x0000
000fa4  00000000          DCW      0x0000,0x0000
000fa8  00000000          DCW      0x0000,0x0000
000fac  00000000          DCW      0x0000,0x0000
000fb0  00000000          DCW      0x0000,0x0000
000fb4  00000000          DCW      0x0000,0x0000
000fb8  00000000          DCW      0x0000,0x0000
000fbc  03f007f8          DCW      0x03f0,0x07f8
000fc0  0c1c0c0c          DCW      0x0c1c,0x0c0c
000fc4  0f000ff0          DCW      0x0f00,0x0ff0
000fc8  0cf80c0c          DCW      0x0cf8,0x0c0c
000fcc  0c0c0f1c          DCW      0x0c0c,0x0f1c
000fd0  0ff818f0          DCW      0x0ff8,0x18f0
000fd4  00000000          DCW      0x0000,0x0000
000fd8  00000000          DCW      0x0000,0x0000
000fdc  00000000          DCW      0x0000,0x0000
000fe0  00000018          DCW      0x0000,0x0018
000fe4  00180018          DCW      0x0018,0x0018
000fe8  00180018          DCW      0x0018,0x0018
000fec  03d80ff8          DCW      0x03d8,0x0ff8
000ff0  0c381818          DCW      0x0c38,0x1818
000ff4  18181818          DCW      0x1818,0x1818
000ff8  18181818          DCW      0x1818,0x1818
000ffc  18180c38          DCW      0x1818,0x0c38
001000  0ff803d8          DCW      0x0ff8,0x03d8
001004  00000000          DCW      0x0000,0x0000
001008  00000000          DCW      0x0000,0x0000
00100c  00000000          DCW      0x0000,0x0000
001010  00000000          DCW      0x0000,0x0000
001014  00000000          DCW      0x0000,0x0000
001018  00000000          DCW      0x0000,0x0000
00101c  03c007f0          DCW      0x03c0,0x07f0
001020  0e300c18          DCW      0x0e30,0x0c18
001024  00180018          DCW      0x0018,0x0018
001028  00180018          DCW      0x0018,0x0018
00102c  0c180e30          DCW      0x0c18,0x0e30
001030  07f003c0          DCW      0x07f0,0x03c0
001034  00000000          DCW      0x0000,0x0000
001038  00000000          DCW      0x0000,0x0000
00103c  00000000          DCW      0x0000,0x0000
001040  00001800          DCW      0x0000,0x1800
001044  18001800          DCW      0x1800,0x1800
001048  18001800          DCW      0x1800,0x1800
00104c  1bc01ff0          DCW      0x1bc0,0x1ff0
001050  1c301818          DCW      0x1c30,0x1818
001054  18181818          DCW      0x1818,0x1818
001058  18181818          DCW      0x1818,0x1818
00105c  18181c30          DCW      0x1818,0x1c30
001060  1ff01bc0          DCW      0x1ff0,0x1bc0
001064  00000000          DCW      0x0000,0x0000
001068  00000000          DCW      0x0000,0x0000
00106c  00000000          DCW      0x0000,0x0000
001070  00000000          DCW      0x0000,0x0000
001074  00000000          DCW      0x0000,0x0000
001078  00000000          DCW      0x0000,0x0000
00107c  03c00ff0          DCW      0x03c0,0x0ff0
001080  0c301818          DCW      0x0c30,0x1818
001084  1ff81ff8          DCW      0x1ff8,0x1ff8
001088  00180018          DCW      0x0018,0x0018
00108c  18381c30          DCW      0x1838,0x1c30
001090  0ff007c0          DCW      0x0ff0,0x07c0
001094  00000000          DCW      0x0000,0x0000
001098  00000000          DCW      0x0000,0x0000
00109c  00000000          DCW      0x0000,0x0000
0010a0  00000f80          DCW      0x0000,0x0f80
0010a4  0fc000c0          DCW      0x0fc0,0x00c0
0010a8  00c000c0          DCW      0x00c0,0x00c0
0010ac  07f007f0          DCW      0x07f0,0x07f0
0010b0  00c000c0          DCW      0x00c0,0x00c0
0010b4  00c000c0          DCW      0x00c0,0x00c0
0010b8  00c000c0          DCW      0x00c0,0x00c0
0010bc  00c000c0          DCW      0x00c0,0x00c0
0010c0  00c000c0          DCW      0x00c0,0x00c0
0010c4  00000000          DCW      0x0000,0x0000
0010c8  00000000          DCW      0x0000,0x0000
0010cc  00000000          DCW      0x0000,0x0000
0010d0  00000000          DCW      0x0000,0x0000
0010d4  00000000          DCW      0x0000,0x0000
0010d8  00000000          DCW      0x0000,0x0000
0010dc  0de00ff8          DCW      0x0de0,0x0ff8
0010e0  0e180c0c          DCW      0x0e18,0x0c0c
0010e4  0c0c0c0c          DCW      0x0c0c,0x0c0c
0010e8  0c0c0c0c          DCW      0x0c0c,0x0c0c
0010ec  0c0c0e18          DCW      0x0c0c,0x0e18
0010f0  0ff80de0          DCW      0x0ff8,0x0de0
0010f4  0c000c0c          DCW      0x0c00,0x0c0c
0010f8  061c07f8          DCW      0x061c,0x07f8
0010fc  01f00000          DCW      0x01f0,0x0000
001100  00000018          DCW      0x0000,0x0018
001104  00180018          DCW      0x0018,0x0018
001108  00180018          DCW      0x0018,0x0018
00110c  07d80ff8          DCW      0x07d8,0x0ff8
001110  1c381818          DCW      0x1c38,0x1818
001114  18181818          DCW      0x1818,0x1818
001118  18181818          DCW      0x1818,0x1818
00111c  18181818          DCW      0x1818,0x1818
001120  18181818          DCW      0x1818,0x1818
001124  00000000          DCW      0x0000,0x0000
001128  00000000          DCW      0x0000,0x0000
00112c  00000000          DCW      0x0000,0x0000
001130  000000c0          DCW      0x0000,0x00c0
001134  00c00000          DCW      0x00c0,0x0000
001138  00000000          DCW      0x0000,0x0000
00113c  00c000c0          DCW      0x00c0,0x00c0
001140  00c000c0          DCW      0x00c0,0x00c0
001144  00c000c0          DCW      0x00c0,0x00c0
001148  00c000c0          DCW      0x00c0,0x00c0
00114c  00c000c0          DCW      0x00c0,0x00c0
001150  00c000c0          DCW      0x00c0,0x00c0
001154  00000000          DCW      0x0000,0x0000
001158  00000000          DCW      0x0000,0x0000
00115c  00000000          DCW      0x0000,0x0000
001160  000000c0          DCW      0x0000,0x00c0
001164  00c00000          DCW      0x00c0,0x0000
001168  00000000          DCW      0x0000,0x0000
00116c  00c000c0          DCW      0x00c0,0x00c0
001170  00c000c0          DCW      0x00c0,0x00c0
001174  00c000c0          DCW      0x00c0,0x00c0
001178  00c000c0          DCW      0x00c0,0x00c0
00117c  00c000c0          DCW      0x00c0,0x00c0
001180  00c000c0          DCW      0x00c0,0x00c0
001184  00c000c0          DCW      0x00c0,0x00c0
001188  00c000f8          DCW      0x00c0,0x00f8
00118c  00780000          DCW      0x0078,0x0000
001190  0000000c          DCW      0x0000,0x000c
001194  000c000c          DCW      0x000c,0x000c
001198  000c000c          DCW      0x000c,0x000c
00119c  0c0c060c          DCW      0x0c0c,0x060c
0011a0  030c018c          DCW      0x030c,0x018c
0011a4  00cc006c          DCW      0x00cc,0x006c
0011a8  00fc019c          DCW      0x00fc,0x019c
0011ac  038c030c          DCW      0x038c,0x030c
0011b0  060c0c0c          DCW      0x060c,0x0c0c
0011b4  00000000          DCW      0x0000,0x0000
0011b8  00000000          DCW      0x0000,0x0000
0011bc  00000000          DCW      0x0000,0x0000
0011c0  000000c0          DCW      0x0000,0x00c0
0011c4  00c000c0          DCW      0x00c0,0x00c0
0011c8  00c000c0          DCW      0x00c0,0x00c0
0011cc  00c000c0          DCW      0x00c0,0x00c0
0011d0  00c000c0          DCW      0x00c0,0x00c0
0011d4  00c000c0          DCW      0x00c0,0x00c0
0011d8  00c000c0          DCW      0x00c0,0x00c0
0011dc  00c000c0          DCW      0x00c0,0x00c0
0011e0  00c000c0          DCW      0x00c0,0x00c0
0011e4  00000000          DCW      0x0000,0x0000
0011e8  00000000          DCW      0x0000,0x0000
0011ec  00000000          DCW      0x0000,0x0000
0011f0  00000000          DCW      0x0000,0x0000
0011f4  00000000          DCW      0x0000,0x0000
0011f8  00000000          DCW      0x0000,0x0000
0011fc  3c7c7eff          DCW      0x3c7c,0x7eff
001200  e3c7c183          DCW      0xe3c7,0xc183
001204  c183c183          DCW      0xc183,0xc183
001208  c183c183          DCW      0xc183,0xc183
00120c  c183c183          DCW      0xc183,0xc183
001210  c183c183          DCW      0xc183,0xc183
001214  00000000          DCW      0x0000,0x0000
001218  00000000          DCW      0x0000,0x0000
00121c  00000000          DCW      0x0000,0x0000
001220  00000000          DCW      0x0000,0x0000
001224  00000000          DCW      0x0000,0x0000
001228  00000000          DCW      0x0000,0x0000
00122c  07980ff8          DCW      0x0798,0x0ff8
001230  1c381818          DCW      0x1c38,0x1818
001234  18181818          DCW      0x1818,0x1818
001238  18181818          DCW      0x1818,0x1818
00123c  18181818          DCW      0x1818,0x1818
001240  18181818          DCW      0x1818,0x1818
001244  00000000          DCW      0x0000,0x0000
001248  00000000          DCW      0x0000,0x0000
00124c  00000000          DCW      0x0000,0x0000
001250  00000000          DCW      0x0000,0x0000
001254  00000000          DCW      0x0000,0x0000
001258  00000000          DCW      0x0000,0x0000
00125c  03c00ff0          DCW      0x03c0,0x0ff0
001260  0c301818          DCW      0x0c30,0x1818
001264  18181818          DCW      0x1818,0x1818
001268  18181818          DCW      0x1818,0x1818
00126c  18180c30          DCW      0x1818,0x0c30
001270  0ff003c0          DCW      0x0ff0,0x03c0
001274  00000000          DCW      0x0000,0x0000
001278  00000000          DCW      0x0000,0x0000
00127c  00000000          DCW      0x0000,0x0000
001280  00000000          DCW      0x0000,0x0000
001284  00000000          DCW      0x0000,0x0000
001288  00000000          DCW      0x0000,0x0000
00128c  03d80ff8          DCW      0x03d8,0x0ff8
001290  0c381818          DCW      0x0c38,0x1818
001294  18181818          DCW      0x1818,0x1818
001298  18181818          DCW      0x1818,0x1818
00129c  18180c38          DCW      0x1818,0x0c38
0012a0  0ff803d8          DCW      0x0ff8,0x03d8
0012a4  00180018          DCW      0x0018,0x0018
0012a8  00180018          DCW      0x0018,0x0018
0012ac  00180000          DCW      0x0018,0x0000
0012b0  00000000          DCW      0x0000,0x0000
0012b4  00000000          DCW      0x0000,0x0000
0012b8  00000000          DCW      0x0000,0x0000
0012bc  1bc01ff0          DCW      0x1bc0,0x1ff0
0012c0  1c301818          DCW      0x1c30,0x1818
0012c4  18181818          DCW      0x1818,0x1818
0012c8  18181818          DCW      0x1818,0x1818
0012cc  18181c30          DCW      0x1818,0x1c30
0012d0  1ff01bc0          DCW      0x1ff0,0x1bc0
0012d4  18001800          DCW      0x1800,0x1800
0012d8  18001800          DCW      0x1800,0x1800
0012dc  18000000          DCW      0x1800,0x0000
0012e0  00000000          DCW      0x0000,0x0000
0012e4  00000000          DCW      0x0000,0x0000
0012e8  00000000          DCW      0x0000,0x0000
0012ec  07b003f0          DCW      0x07b0,0x03f0
0012f0  00700030          DCW      0x0070,0x0030
0012f4  00300030          DCW      0x0030,0x0030
0012f8  00300030          DCW      0x0030,0x0030
0012fc  00300030          DCW      0x0030,0x0030
001300  00300030          DCW      0x0030,0x0030
001304  00000000          DCW      0x0000,0x0000
001308  00000000          DCW      0x0000,0x0000
00130c  00000000          DCW      0x0000,0x0000
001310  00000000          DCW      0x0000,0x0000
001314  00000000          DCW      0x0000,0x0000
001318  00000000          DCW      0x0000,0x0000
00131c  03e003f0          DCW      0x03e0,0x03f0
001320  0e380c18          DCW      0x0e38,0x0c18
001324  003803f0          DCW      0x0038,0x03f0
001328  07c00c00          DCW      0x07c0,0x0c00
00132c  0c180e38          DCW      0x0c18,0x0e38
001330  07f003e0          DCW      0x07f0,0x03e0
001334  00000000          DCW      0x0000,0x0000
001338  00000000          DCW      0x0000,0x0000
00133c  00000000          DCW      0x0000,0x0000
001340  00000000          DCW      0x0000,0x0000
001344  008000c0          DCW      0x0080,0x00c0
001348  00c000c0          DCW      0x00c0,0x00c0
00134c  07f007f0          DCW      0x07f0,0x07f0
001350  00c000c0          DCW      0x00c0,0x00c0
001354  00c000c0          DCW      0x00c0,0x00c0
001358  00c000c0          DCW      0x00c0,0x00c0
00135c  00c000c0          DCW      0x00c0,0x00c0
001360  07c00780          DCW      0x07c0,0x0780
001364  00000000          DCW      0x0000,0x0000
001368  00000000          DCW      0x0000,0x0000
00136c  00000000          DCW      0x0000,0x0000
001370  00000000          DCW      0x0000,0x0000
001374  00000000          DCW      0x0000,0x0000
001378  00000000          DCW      0x0000,0x0000
00137c  18181818          DCW      0x1818,0x1818
001380  18181818          DCW      0x1818,0x1818
001384  18181818          DCW      0x1818,0x1818
001388  18181818          DCW      0x1818,0x1818
00138c  18181c38          DCW      0x1818,0x1c38
001390  1ff019e0          DCW      0x1ff0,0x19e0
001394  00000000          DCW      0x0000,0x0000
001398  00000000          DCW      0x0000,0x0000
00139c  00000000          DCW      0x0000,0x0000
0013a0  00000000          DCW      0x0000,0x0000
0013a4  00000000          DCW      0x0000,0x0000
0013a8  00000000          DCW      0x0000,0x0000
0013ac  180c0c18          DCW      0x180c,0x0c18
0013b0  0c180c18          DCW      0x0c18,0x0c18
0013b4  06300630          DCW      0x0630,0x0630
0013b8  06300360          DCW      0x0630,0x0360
0013bc  03600360          DCW      0x0360,0x0360
0013c0  01c001c0          DCW      0x01c0,0x01c0
0013c4  00000000          DCW      0x0000,0x0000
0013c8  00000000          DCW      0x0000,0x0000
0013cc  00000000          DCW      0x0000,0x0000
0013d0  00000000          DCW      0x0000,0x0000
0013d4  00000000          DCW      0x0000,0x0000
0013d8  00000000          DCW      0x0000,0x0000
0013dc  41c141c1          DCW      0x41c1,0x41c1
0013e0  61c36363          DCW      0x61c3,0x6363
0013e4  63636363          DCW      0x6363,0x6363
0013e8  36363636          DCW      0x3636,0x3636
0013ec  36361c1c          DCW      0x3636,0x1c1c
0013f0  1c1c1c1c          DCW      0x1c1c,0x1c1c
0013f4  00000000          DCW      0x0000,0x0000
0013f8  00000000          DCW      0x0000,0x0000
0013fc  00000000          DCW      0x0000,0x0000
001400  00000000          DCW      0x0000,0x0000
001404  00000000          DCW      0x0000,0x0000
001408  00000000          DCW      0x0000,0x0000
00140c  381c1c38          DCW      0x381c,0x1c38
001410  0c300660          DCW      0x0c30,0x0660
001414  03c003c0          DCW      0x03c0,0x03c0
001418  03c003c0          DCW      0x03c0,0x03c0
00141c  06600c30          DCW      0x0660,0x0c30
001420  1c38381c          DCW      0x1c38,0x381c
001424  00000000          DCW      0x0000,0x0000
001428  00000000          DCW      0x0000,0x0000
00142c  00000000          DCW      0x0000,0x0000
001430  00000000          DCW      0x0000,0x0000
001434  00000000          DCW      0x0000,0x0000
001438  00000000          DCW      0x0000,0x0000
00143c  30181830          DCW      0x3018,0x1830
001440  18301870          DCW      0x1830,0x1870
001444  0c600c60          DCW      0x0c60,0x0c60
001448  0ce006c0          DCW      0x0ce0,0x06c0
00144c  06c00380          DCW      0x06c0,0x0380
001450  03800380          DCW      0x0380,0x0380
001454  01800180          DCW      0x0180,0x0180
001458  01c000f0          DCW      0x01c0,0x00f0
00145c  00700000          DCW      0x0070,0x0000
001460  00000000          DCW      0x0000,0x0000
001464  00000000          DCW      0x0000,0x0000
001468  00000000          DCW      0x0000,0x0000
00146c  1ffc1ffc          DCW      0x1ffc,0x1ffc
001470  0c000600          DCW      0x0c00,0x0600
001474  03000180          DCW      0x0300,0x0180
001478  00c00060          DCW      0x00c0,0x0060
00147c  00300018          DCW      0x0030,0x0018
001480  1ffc1ffc          DCW      0x1ffc,0x1ffc
001484  00000000          DCW      0x0000,0x0000
001488  00000000          DCW      0x0000,0x0000
00148c  00000000          DCW      0x0000,0x0000
001490  00000300          DCW      0x0000,0x0300
001494  018000c0          DCW      0x0180,0x00c0
001498  00c000c0          DCW      0x00c0,0x00c0
00149c  00c000c0          DCW      0x00c0,0x00c0
0014a0  00c00060          DCW      0x00c0,0x0060
0014a4  00600030          DCW      0x0060,0x0030
0014a8  00600040          DCW      0x0060,0x0040
0014ac  00c000c0          DCW      0x00c0,0x00c0
0014b0  00c000c0          DCW      0x00c0,0x00c0
0014b4  00c000c0          DCW      0x00c0,0x00c0
0014b8  01800300          DCW      0x0180,0x0300
0014bc  00000000          DCW      0x0000,0x0000
0014c0  00000180          DCW      0x0000,0x0180
0014c4  01800180          DCW      0x0180,0x0180
0014c8  01800180          DCW      0x0180,0x0180
0014cc  01800180          DCW      0x0180,0x0180
0014d0  01800180          DCW      0x0180,0x0180
0014d4  01800180          DCW      0x0180,0x0180
0014d8  01800180          DCW      0x0180,0x0180
0014dc  01800180          DCW      0x0180,0x0180
0014e0  01800180          DCW      0x0180,0x0180
0014e4  01800180          DCW      0x0180,0x0180
0014e8  01800180          DCW      0x0180,0x0180
0014ec  01800000          DCW      0x0180,0x0000
0014f0  00000060          DCW      0x0000,0x0060
0014f4  00c001c0          DCW      0x00c0,0x01c0
0014f8  01800180          DCW      0x0180,0x0180
0014fc  01800180          DCW      0x0180,0x0180
001500  01800300          DCW      0x0180,0x0300
001504  03000600          DCW      0x0300,0x0600
001508  03000100          DCW      0x0300,0x0100
00150c  01800180          DCW      0x0180,0x0180
001510  01800180          DCW      0x0180,0x0180
001514  01800180          DCW      0x0180,0x0180
001518  00c00060          DCW      0x00c0,0x0060
00151c  00000000          DCW      0x0000,0x0000
001520  00000000          DCW      0x0000,0x0000
001524  00000000          DCW      0x0000,0x0000
001528  00000000          DCW      0x0000,0x0000
00152c  00000000          DCW      0x0000,0x0000
001530  10f01ff8          DCW      0x10f0,0x1ff8
001534  0f080000          DCW      0x0f08,0x0000
001538  00000000          DCW      0x0000,0x0000
00153c  00000000          DCW      0x0000,0x0000
001540  00000000          DCW      0x0000,0x0000
001544  00000000          DCW      0x0000,0x0000
001548  00000000          DCW      0x0000,0x0000
00154c  00000000          DCW      0x0000,0x0000
001550  00000000          DCW      0x0000,0x0000
001554  00000000          DCW      0x0000,0x0000
001558  00000000          DCW      0x0000,0x0000
00155c  00000000          DCW      0x0000,0x0000
001560  00000000          DCW      0x0000,0x0000
001564  00000000          DCW      0x0000,0x0000
001568  00000000          DCW      0x0000,0x0000
00156c  00000000          DCW      0x0000,0x0000
001570  00000000          DCW      0x0000,0x0000
001574  00000000          DCW      0x0000,0x0000
001578  00000000          DCW      0x0000,0x0000
00157c  00000000          DCW      0x0000,0x0000
001580  00000000          DCW      0x0000,0x0000
001584  00000000          DCW      0x0000,0x0000
001588  000003c0          DCW      0x0000,0x03c0
00158c  0c301008          DCW      0x0c30,0x1008
001590  20042004          DCW      0x2004,0x2004
001594  40024002          DCW      0x4002,0x4002
001598  40024002          DCW      0x4002,0x4002
00159c  40022004          DCW      0x4002,0x2004
0015a0  20041008          DCW      0x2004,0x1008
0015a4  0c3003c0          DCW      0x0c30,0x03c0
0015a8  00000000          DCW      0x0000,0x0000
0015ac  00000000          DCW      0x0000,0x0000
0015b0  00000000          DCW      0x0000,0x0000
0015b4  00000000          DCW      0x0000,0x0000
0015b8  000003c0          DCW      0x0000,0x03c0
0015bc  0ff01ff8          DCW      0x0ff0,0x1ff8
0015c0  3ffc3ffc          DCW      0x3ffc,0x3ffc
0015c4  7ffe7ffe          DCW      0x7ffe,0x7ffe
0015c8  7ffe7ffe          DCW      0x7ffe,0x7ffe
0015cc  7ffe3ffc          DCW      0x7ffe,0x3ffc
0015d0  3ffc1ff8          DCW      0x3ffc,0x1ff8
0015d4  0ff003c0          DCW      0x0ff0,0x03c0
0015d8  00000000          DCW      0x0000,0x0000
0015dc  00000000          DCW      0x0000,0x0000
0015e0  00000000          DCW      0x0000,0x0000
0015e4  00000000          DCW      0x0000,0x0000
0015e8  00000000          DCW      0x0000,0x0000
0015ec  000007e0          DCW      0x0000,0x07e0
0015f0  0ff01818          DCW      0x0ff0,0x1818
0015f4  18181818          DCW      0x1818,0x1818
0015f8  18181818          DCW      0x1818,0x1818
0015fc  18180ff0          DCW      0x1818,0x0ff0
001600  07e00000          DCW      0x07e0,0x0000
001604  00000000          DCW      0x0000,0x0000
001608  00000000          DCW      0x0000,0x0000
00160c  00000000          DCW      0x0000,0x0000
001610  00000000          DCW      0x0000,0x0000
001614  00000000          DCW      0x0000,0x0000
001618  00000000          DCW      0x0000,0x0000
00161c  000007e0          DCW      0x0000,0x07e0
001620  0ff01ff8          DCW      0x0ff0,0x1ff8
001624  1ff81ff8          DCW      0x1ff8,0x1ff8
001628  1ff81ff8          DCW      0x1ff8,0x1ff8
00162c  1ff80ff0          DCW      0x1ff8,0x0ff0
001630  07e00000          DCW      0x07e0,0x0000
001634  00000000          DCW      0x0000,0x0000
001638  00000000          DCW      0x0000,0x0000
00163c  00000000          DCW      0x0000,0x0000
001640  00000000          DCW      0x0000,0x0000
001644  00000000          DCW      0x0000,0x0000
001648  00000000          DCW      0x0000,0x0000
00164c  00000000          DCW      0x0000,0x0000
001650  00000000          DCW      0x0000,0x0000
001654  00000000          DCW      0x0000,0x0000
001658  018003c0          DCW      0x0180,0x03c0
00165c  06600c30          DCW      0x0660,0x0c30
001660  18181818          DCW      0x1818,0x1818
001664  1ff81ff8          DCW      0x1ff8,0x1ff8
001668  00000000          DCW      0x0000,0x0000
00166c  00000000          DCW      0x0000,0x0000
001670  00000000          DCW      0x0000,0x0000
001674  00000000          DCW      0x0000,0x0000
001678  00000000          DCW      0x0000,0x0000
00167c  00000000          DCW      0x0000,0x0000
001680  00000000          DCW      0x0000,0x0000
001684  00000000          DCW      0x0000,0x0000
001688  018003c0          DCW      0x0180,0x03c0
00168c  07e00ff0          DCW      0x07e0,0x0ff0
001690  1ff81ff8          DCW      0x1ff8,0x1ff8
001694  1ff81ff8          DCW      0x1ff8,0x1ff8
001698  00000000          DCW      0x0000,0x0000
00169c  00000000          DCW      0x0000,0x0000
0016a0  00000000          DCW      0x0000,0x0000
0016a4  00000000          DCW      0x0000,0x0000
0016a8  1ff81ff8          DCW      0x1ff8,0x1ff8
0016ac  18181818          DCW      0x1818,0x1818
0016b0  0c300660          DCW      0x0c30,0x0660
0016b4  03c00180          DCW      0x03c0,0x0180
0016b8  00000000          DCW      0x0000,0x0000
0016bc  00000000          DCW      0x0000,0x0000
0016c0  00000000          DCW      0x0000,0x0000
0016c4  00000000          DCW      0x0000,0x0000
0016c8  00000000          DCW      0x0000,0x0000
0016cc  00000000          DCW      0x0000,0x0000
0016d0  00000000          DCW      0x0000,0x0000
0016d4  00000000          DCW      0x0000,0x0000
0016d8  1ff81ff8          DCW      0x1ff8,0x1ff8
0016dc  1ff81ff8          DCW      0x1ff8,0x1ff8
0016e0  0ff007e0          DCW      0x0ff0,0x07e0
0016e4  03c00180          DCW      0x03c0,0x0180
0016e8  00000000          DCW      0x0000,0x0000
0016ec  00000000          DCW      0x0000,0x0000
0016f0  00000000          DCW      0x0000,0x0000
0016f4  00000000          DCW      0x0000,0x0000
0016f8  00000000          DCW      0x0000,0x0000
0016fc  00000000          DCW      0x0000,0x0000
001700  00000000          DCW      0x0000,0x0000
001704  00000000          DCW      0x0000,0x0000
001708  00000000          DCW      0x0000,0x0000
00170c  000001e0          DCW      0x0000,0x01e0
001710  01f00198          DCW      0x01f0,0x0198
001714  018c0186          DCW      0x018c,0x0186
001718  0186018c          DCW      0x0186,0x018c
00171c  019801f0          DCW      0x0198,0x01f0
001720  01e00000          DCW      0x01e0,0x0000
001724  00000000          DCW      0x0000,0x0000
001728  00000000          DCW      0x0000,0x0000
00172c  00000000          DCW      0x0000,0x0000
001730  00000000          DCW      0x0000,0x0000
001734  00000000          DCW      0x0000,0x0000
001738  00000000          DCW      0x0000,0x0000
00173c  000001e0          DCW      0x0000,0x01e0
001740  01f001f8          DCW      0x01f0,0x01f8
001744  01fc01fe          DCW      0x01fc,0x01fe
001748  01fe01fc          DCW      0x01fe,0x01fc
00174c  01f801f0          DCW      0x01f8,0x01f0
001750  01e00000          DCW      0x01e0,0x0000
001754  00000000          DCW      0x0000,0x0000
001758  00000000          DCW      0x0000,0x0000
00175c  00000000          DCW      0x0000,0x0000
001760  00000000          DCW      0x0000,0x0000
001764  00000000          DCW      0x0000,0x0000
001768  00000000          DCW      0x0000,0x0000
00176c  00000780          DCW      0x0000,0x0780
001770  0f801980          DCW      0x0f80,0x1980
001774  31806180          DCW      0x3180,0x6180
001778  61803180          DCW      0x6180,0x3180
00177c  19800f80          DCW      0x1980,0x0f80
001780  07800000          DCW      0x0780,0x0000
001784  00000000          DCW      0x0000,0x0000
001788  00000000          DCW      0x0000,0x0000
00178c  00000000          DCW      0x0000,0x0000
001790  00000000          DCW      0x0000,0x0000
001794  00000000          DCW      0x0000,0x0000
001798  00000000          DCW      0x0000,0x0000
00179c  00000780          DCW      0x0000,0x0780
0017a0  0f801f80          DCW      0x0f80,0x1f80
0017a4  3f807f80          DCW      0x3f80,0x7f80
0017a8  7f803f80          DCW      0x7f80,0x3f80
0017ac  1f800f80          DCW      0x1f80,0x0f80
0017b0  07800000          DCW      0x0780,0x0000
0017b4  00000000          DCW      0x0000,0x0000
0017b8  00000000          DCW      0x0000,0x0000
0017bc  00000000          DCW      0x0000,0x0000
0017c0  000001c0          DCW      0x0000,0x01c0
0017c4  02200220          DCW      0x0220,0x0220
0017c8  01400630          DCW      0x0140,0x0630
0017cc  08080808          DCW      0x0808,0x0808
0017d0  08080808          DCW      0x0808,0x0808
0017d4  08080808          DCW      0x0808,0x0808
0017d8  08080220          DCW      0x0808,0x0220
0017dc  02200220          DCW      0x0220,0x0220
0017e0  02200220          DCW      0x0220,0x0220
0017e4  02200220          DCW      0x0220,0x0220
0017e8  02200220          DCW      0x0220,0x0220
0017ec  02200000          DCW      0x0220,0x0000
0017f0  000001c0          DCW      0x0000,0x01c0
0017f4  03e003e0          DCW      0x03e0,0x03e0
0017f8  01c007f0          DCW      0x01c0,0x07f0
0017fc  0dd80dd8          DCW      0x0dd8,0x0dd8
001800  0dd80dd8          DCW      0x0dd8,0x0dd8
001804  0dd80dd8          DCW      0x0dd8,0x0dd8
001808  0dd80360          DCW      0x0dd8,0x0360
00180c  03600360          DCW      0x0360,0x0360
001810  03600360          DCW      0x0360,0x0360
001814  03600360          DCW      0x0360,0x0360
001818  03600360          DCW      0x0360,0x0360
00181c  03600000          DCW      0x0360,0x0000
001820  000001c0          DCW      0x0000,0x01c0
001824  02200220          DCW      0x0220,0x0220
001828  01400630          DCW      0x0140,0x0630
00182c  08080808          DCW      0x0808,0x0808
001830  08081004          DCW      0x0808,0x1004
001834  20022002          DCW      0x2002,0x2002
001838  01400220          DCW      0x0140,0x0220
00183c  02200410          DCW      0x0220,0x0410
001840  08080808          DCW      0x0808,0x0808
001844  10041004          DCW      0x1004,0x1004
001848  20044004          DCW      0x2004,0x4004
00184c  00000000          DCW      0x0000,0x0000
001850  000001c0          DCW      0x0000,0x01c0
001854  03e003e0          DCW      0x03e0,0x03e0
001858  01c007f0          DCW      0x01c0,0x07f0
00185c  0dd80dd8          DCW      0x0dd8,0x0dd8
001860  0dd819cc          DCW      0x0dd8,0x19cc
001864  31c661c2          DCW      0x31c6,0x61c2
001868  01c00360          DCW      0x01c0,0x0360
00186c  03600670          DCW      0x0360,0x0670
001870  0c380c18          DCW      0x0c38,0x0c18
001874  180c180c          DCW      0x180c,0x180c
001878  300c600c          DCW      0x300c,0x600c
00187c  00000000          DCW      0x0000,0x0000

                          AREA ||.data||, DATA, ALIGN=1

                  TextColor
000000  0000              DCW      0x0000
                  BackColor
000002  ffff              DCW      0xffff
                  driverCode
000004  0000              DCB      0x00,0x00

;*** Start embedded assembler ***

#line 1 "src\\GLCD_SPI_LPC1700.c"
	AREA ||.emb_text||, CODE, READONLY
	THUMB
	EXPORT |__asm___18_GLCD_SPI_LPC1700_c_07b274fb____REV16|
#line 112 "C:\\Software\\Keil\\ARM\\CMSIS\\Include\\core_cmInstr.h"
|__asm___18_GLCD_SPI_LPC1700_c_07b274fb____REV16| PROC
#line 113

 rev16 r0, r0
 bx lr
	ENDP
	AREA ||.emb_text||, CODE, READONLY
	THUMB
	EXPORT |__asm___18_GLCD_SPI_LPC1700_c_07b274fb____REVSH|
#line 130
|__asm___18_GLCD_SPI_LPC1700_c_07b274fb____REVSH| PROC
#line 131

 revsh r0, r0
 bx lr
	ENDP

;*** End   embedded assembler ***
